******************************************************************************
             TMS320C2000 Linker Unix v16.9.4                   
******************************************************************************
>> Linked Sun Aug 26 16:30:52 2018

OUTPUT FILE NAME:   <Pro_test.out>
ENTRY POINT SYMBOL: "code_start"  address: 00000000


MEMORY CONFIGURATION

         name            origin    length      used     unused   attr    fill
----------------------  --------  ---------  --------  --------  ----  --------
PAGE 0:
  BEGIN                 00000000   00000002  00000002  00000000  RWIX
  RAMD0                 0000b000   00000800  0000011f  000006e1  RWIX
  RAMGS0                0000c000   00001000  00000008  00000ff8  RWIX
  RAMGS1to11            0000d000   00018000  0000a413  0000dbed  RWIX
  RESET                 003fffc0   00000002  00000000  00000002  RWIX

PAGE 1:
  BOOT_RSVD             00000002   00000120  00000000  00000120  RWIX
  RAMM0                 00000122   000002de  00000000  000002de  RWIX
  RAMM1                 00000400   00000400  00000000  00000400  RWIX
  ADCA_RESULT           00000b00   00000020  00000018  00000008  RWIX
  ADCB_RESULT           00000b20   00000020  00000018  00000008  RWIX
  ADCC_RESULT           00000b40   00000020  00000018  00000008  RWIX
  ADCD_RESULT           00000b60   00000020  00000018  00000008  RWIX
  CPU_TIMER0            00000c00   00000008  00000008  00000000  RWIX
  CPU_TIMER1            00000c08   00000008  00000008  00000000  RWIX
  CPU_TIMER2            00000c10   00000008  00000008  00000000  RWIX
  PIE_CTRL              00000ce0   00000020  0000001a  00000006  RWIX
  PIE_VECT              00000d00   00000200  000001c0  00000040  RWIX
  DMA                   00001000   00000200  000000e0  00000120  RWIX
  CLA1                  00001400   00000040  0000003e  00000002  RWIX
  EPWM1                 00004000   00000100  00000100  00000000  RWIX
  EPWM2                 00004100   00000100  00000100  00000000  RWIX
  EPWM3                 00004200   00000100  00000100  00000000  RWIX
  EPWM4                 00004300   00000100  00000100  00000000  RWIX
  EPWM5                 00004400   00000100  00000100  00000000  RWIX
  EPWM6                 00004500   00000100  00000100  00000000  RWIX
  EPWM7                 00004600   00000100  00000100  00000000  RWIX
  EPWM8                 00004700   00000100  00000100  00000000  RWIX
  EPWM9                 00004800   00000100  00000100  00000000  RWIX
  EPWM10                00004900   00000100  00000100  00000000  RWIX
  EPWM11                00004a00   00000100  00000100  00000000  RWIX
  EPWM12                00004b00   00000100  00000100  00000000  RWIX
  ECAP1                 00005000   00000020  00000020  00000000  RWIX
  ECAP2                 00005020   00000020  00000020  00000000  RWIX
  ECAP3                 00005040   00000020  00000020  00000000  RWIX
  ECAP4                 00005060   00000020  00000020  00000000  RWIX
  ECAP5                 00005080   00000020  00000020  00000000  RWIX
  ECAP6                 000050a0   00000020  00000020  00000000  RWIX
  EQEP1                 00005100   00000040  00000022  0000001e  RWIX
  EQEP2                 00005140   00000040  00000022  0000001e  RWIX
  EQEP3                 00005180   00000040  00000022  0000001e  RWIX
  DACA                  00005c00   00000010  00000008  00000008  RWIX
  DACB                  00005c10   00000010  00000008  00000008  RWIX
  DACC                  00005c20   00000010  00000008  00000008  RWIX
  CMPSS1                00005c80   00000020  00000020  00000000  RWIX
  CMPSS2                00005ca0   00000020  00000020  00000000  RWIX
  CMPSS3                00005cc0   00000020  00000020  00000000  RWIX
  CMPSS4                00005ce0   00000020  00000020  00000000  RWIX
  CMPSS5                00005d00   00000020  00000020  00000000  RWIX
  CMPSS6                00005d20   00000020  00000020  00000000  RWIX
  CMPSS7                00005d40   00000020  00000020  00000000  RWIX
  CMPSS8                00005d60   00000020  00000020  00000000  RWIX
  SDFM1                 00005e00   00000080  00000080  00000000  RWIX
  SDFM2                 00005e80   00000080  00000080  00000000  RWIX
  MCBSPA                00006000   00000040  00000024  0000001c  RWIX
  MCBSPB                00006040   00000040  00000024  0000001c  RWIX
  SPIA                  00006100   00000010  00000010  00000000  RWIX
  SPIB                  00006110   00000010  00000010  00000000  RWIX
  SPIC                  00006120   00000010  00000010  00000000  RWIX
  SPID                  00006130   00000010  00000000  00000010  RWIX
  UPP                   00006200   00000100  00000048  000000b8  RWIX
  WD                    00007000   00000040  0000002b  00000015  RWIX
  NMIINTRUPT            00007060   00000010  00000007  00000009  RWIX
  XINT                  00007070   00000010  0000000b  00000005  RWIX
  SCIA                  00007200   00000010  00000010  00000000  RWIX
  SCIB                  00007210   00000010  00000010  00000000  RWIX
  SCIC                  00007220   00000010  00000010  00000000  RWIX
  SCID                  00007230   00000010  00000010  00000000  RWIX
  I2CA                  00007300   00000040  00000022  0000001e  RWIX
  I2CB                  00007340   00000040  00000022  0000001e  RWIX
  ADCA                  00007400   00000080  00000080  00000000  RWIX
  ADCB                  00007480   00000080  00000080  00000000  RWIX
  ADCC                  00007500   00000080  00000080  00000000  RWIX
  ADCD                  00007580   00000080  00000080  00000000  RWIX
  INPUT_XBAR            00007900   00000020  00000020  00000000  RWIX
  XBAR                  00007920   00000020  00000020  00000000  RWIX
  SYNC_SOC              00007940   00000010  00000006  0000000a  RWIX
  DMACLASRCSEL          00007980   00000040  0000001a  00000026  RWIX
  EPWM_XBAR             00007a00   00000040  00000040  00000000  RWIX
  CLB_XBAR              00007a40   00000040  00000000  00000040  RWIX
  OUTPUT_XBAR           00007a80   00000040  00000040  00000000  RWIX
  GPIOCTRL              00007c00   00000180  00000180  00000000  RWIX
  GPIODAT               00007f00   00000030  00000030  00000000  RWIX
  RAMLS0                00008000   00000800  000007ff  00000001  RWIX
  RAMLS1                00008800   00000800  00000800  00000000  RWIX
  RAMLS2                00009000   00000800  00000800  00000000  RWIX
  RAMLS3                00009800   00000800  000007fe  00000002  RWIX
  RAMLS4                0000a000   00000800  000007fa  00000006  RWIX
  RAMLS5                0000a800   00000800  00000800  00000000  RWIX
  RAMD1                 0000b800   00000800  00000800  00000000  RWIX
  RAMGS12               00018000   00001000  00000770  00000890  RWIX
  RAMGS13               00019000   00001000  00000000  00001000  RWIX
  RAMGS14               0001a000   00001000  00000000  00001000  RWIX
  RAMGS15               0001b000   00001000  00000000  00001000  RWIX
  CPU2TOCPU1RAM         0003f800   00000400  00000000  00000400  RWIX
  CPU1TOCPU2RAM         0003fc00   00000400  00000088  00000378  RWIX
  EMIF1                 00047000   00000800  00000070  00000790  RWIX
  EMIF2                 00047800   00000800  00000070  00000790  RWIX
  CANA                  00048000   00000800  00000164  0000069c  RWIX
  CANA_MSG_RAM          00049000   00000800  00000000  00000800  RWIX
  CANB                  0004a000   00000800  00000164  0000069c  RWIX
  CANB_MSG_RAM          0004b000   00000800  00000000  00000800  RWIX
  IPC                   00050000   00000024  00000024  00000000  RWIX
  FLASHPUMPSEMAPHORE    00050024   00000002  00000002  00000000  RWIX
  DEV_CFG               0005d000   00000180  0000012e  00000052  RWIX
  ANALOG_SUBSYS         0005d180   00000080  00000048  00000038  RWIX
  CLK_CFG               0005d200   00000100  00000032  000000ce  RWIX
  CPU_SYS               0005d300   00000100  00000082  0000007e  RWIX
  ROMPREFETCH           0005e608   00000002  00000002  00000000  RWIX
  DCSM_Z1               0005f000   00000030  00000024  0000000c  RWIX
  DCSM_Z2               0005f040   00000030  00000024  0000000c  RWIX
  DCSM_COMMON           0005f070   00000010  00000008  00000008  RWIX
  MEMCFG                0005f400   00000080  00000080  00000000  RWIX
  EMIF1CONFIG           0005f480   00000020  00000020  00000000  RWIX
  EMIF2CONFIG           0005f4a0   00000020  00000020  00000000  RWIX
  ACCESSPROTECTION      0005f4c0   00000040  00000040  00000000  RWIX
  MEMORYERROR           0005f500   00000040  00000040  00000000  RWIX
  ROMWAITSTATE          0005f540   00000002  00000002  00000000  RWIX
  FLASH0_CTRL           0005f800   00000300  00000182  0000017e  RWIX
  FLASH0_ECC            0005fb00   00000040  00000028  00000018  RWIX
  DCSM_Z1_OTP           00078000   00000020  00000020  00000000  RWIX
  DCSM_Z2_OTP           00078200   00000020  00000020  00000000  RWIX


SECTION ALLOCATION MAP

 output                                  attributes/
section   page    origin      length       input sections
--------  ----  ----------  ----------   ----------------
codestart 
*          0    00000000    00000002     
                  00000000    00000002     F2837xD_CodeStartBranch.obj (codestart)

.cinit     0    0000c000    00000654     COPY SECTION
                  0000c000    000002a7     bsp_gpio.obj (.cinit)
                  0000c2a7    00000004     F2837xD_sci_io.obj (.cinit)
                  0000c2ab    00000090     F2837xD_struct.obj (.cinit)
                  0000c33b    00000037     usbdaudio.obj (.cinit)
                  0000c372    00000028     usbdbulk.obj (.cinit)
                  0000c39a    00000040     usbdcdc.obj (.cinit)
                  0000c3da    00000015     usbdcomp.obj (.cinit)
                  0000c3ef    00000034     usbddfu-rt.obj (.cinit)
                  0000c423    00000005     usbdenum.obj (.cinit)
                  0000c428    00000015     usbdhid.obj (.cinit)
                  0000c43d    00000033     usbdhidkeyb.obj (.cinit)
                  0000c470    00000031     usbdhidmouse.obj (.cinit)
                  0000c4a1    00000005     usbhaudio.obj (.cinit)
                  0000c4a6    00000035     usbhhid.obj (.cinit)
                  0000c4db    00000005     usbhhidkeyboard.obj (.cinit)
                  0000c4e0    00000005     usbhhidmouse.obj (.cinit)
                  0000c4e5    00000007     usbhmsc.obj (.cinit)
                  0000c4ec    00000046     usbhostenum.obj (.cinit)
                  0000c532    0000000d     usbmode.obj (.cinit)
                  0000c53f    0000000e     usbtick.obj (.cinit)
                  0000c54d    0000000f     dev_dma.obj (.cinit)
                  0000c55c    00000015     dev_spi.obj (.cinit)
                  0000c571    00000018     dev_timer.obj (.cinit)
                  0000c589    0000000b     dev_uart.obj (.cinit)
                  0000c594    0000000b     comtest.obj (.cinit)
                  0000c59f    0000000b     spitest.obj (.cinit)
                  0000c5aa    0000000e     port.obj (.cinit)
                  0000c5b8    00000036     tasks.obj (.cinit)
                  0000c5ee    0000000e     timers.obj (.cinit)
                  0000c5fc    00000004     sys_std.obj (.cinit)
                  0000c600    00000004     crc.obj (.cinit)
                  0000c604    0000002e     getopt.obj (.cinit)
                  0000c632    00000004     getoptbuf.obj (.cinit)
                  0000c636    0000000e     rts2800_fpu32.lib : exit.obj (.cinit)
                  0000c644    00000005                       : _lock.obj (.cinit:__unlock)
                  0000c649    00000005                       : _lock.obj (.cinit:__lock)
                  0000c64e    00000004                       : errno.obj (.cinit)
                  0000c652    00000002     --HOLE-- [fill = 0]

.pinit     0    0000c000    00000000     UNINITIALIZED

.text      0    0000d000    0000a413     
                  0000d000    000015dd     usbhostenum.obj (.text)
                  0000e5dd    00000c72     tasks.obj (.text)
                  0000f24f    00000001     rts2800_fpu32.lib : startup.obj (.text)
                  0000f250    00000c16                       : _printfi.obj (.text)
                  0000fe66    000008ad     dev_spi.obj (.text)
                  00010713    0000084c     usbdenum.obj (.text)
                  00010f5f    0000082f     queue.obj (.text)
                  0001178e    00000809     usb.obj (.text)
                  00011f97    0000066d     rts2800_fpu32.lib : _scanfi.obj (.text)
                  00012604    00000585     cpu_isr.obj (.text:retain)
                  00012b89    0000040d     dev_timer.obj (.text)
                  00012f96    00000400     usbhhub.obj (.text)
                  00013396    0000037e     timers.obj (.text)
                  00013714    0000034a     dev_uart.obj (.text)
                  00013a5e    0000033b     F2837xD_SysCtrl.obj (.text)
                  00013d99    000002e9     dev_dma.obj (.text)
                  00014082    0000025d     usbdconfig.obj (.text)
                  000142df    0000025c     spitest.obj (.text)
                  0001453b    00000259     usbmode.obj (.text)
                  00014794    00000244     F2837xD_Gpio.obj (.text)
                  000149d8    00000243     sysctl.obj (.text)
                  00014c1b    000001f3     bsp_uart.obj (.text)
                  00014e0e    000001ca     interrupt.obj (.text)
                  00014fd8    000001a4     io.obj (.text)
                  0001517c    00000192     bsp_spi.obj (.text)
                  0001530e    00000182     port.obj (.text)
                  00015490    00000178     rts2800_fpu32.lib : strtold.obj (.text)
                  00015608    00000174     getopt.obj (.text)
                  0001577c    00000172     bsp_dma.obj (.text)
                  000158ee    00000171     bsp_clk.obj (.text)
                  00015a5f    0000016e     rts2800_fpu32.lib : strtoll.obj (.text)
                  00015bcd    00000150     usbdcdesc.obj (.text)
                  00015d1d    0000012c     dev_dma.obj (.text:retain)
                  00015e49    00000125     rts2800_fpu32.lib : strtoull.obj (.text)
                  00015f6e    0000011d                       : strtod.obj (.text)
                  0001608b    00000107                       : ll_div28.obj (.text)
                  00016192    000000f1     dev_uart.obj (.text:retain)
                  00016283    000000e5     bsp_timer.obj (.text)
                  00016368    000000de     rts2800_fpu32.lib : strtol.obj (.text)
                  00016446    000000d4     usbdma.obj (.text)
                  0001651a    000000cb     usbdesc.obj (.text)
                  000165e5    000000bd     sys_std.obj (.text)
                  000166a2    000000bc     rts2800_fpu32.lib : s_scalbn.obj (.text)
                  0001675e    000000b9     getoptbuf.obj (.text)
                  00016817    000000b3     rts2800_fpu32.lib : strtoul.obj (.text)
                  000168ca    0000009c                       : fd_add28.obj (.text)
                  00016966    00000093     list.obj (.text)
                  000169f9    00000093     usb_hal.obj (.text:retain)
                  00016a8c    0000008e     dev_timer.obj (.text:retain)
                  00016b1a    0000008b     rts2800_fpu32.lib : fd_div28.obj (.text)
                  00016ba5    00000088                       : fs_div28.obj (.text)
                  00016c2d    00000083                       : fd_mpy28.obj (.text)
                  00016cb0    00000082     usbtick.obj (.text)
                  00016d32    00000077     dev_spi.obj (.text:retain)
                  00016da9    00000076     bsp_gpio.obj (.text)
                  00016e1f    0000006d     rts2800_fpu32.lib : sscanf.obj (.text)
                  00016e8c    0000005a                       : s_frexp.obj (.text)
                  00016ee6    00000057                       : vsnprintf.obj (.text)
                  00016f3d    00000056                       : boot28.obj (.text)
                  00016f93    00000050     crc.obj (.text)
                  00016fe3    00000031     rts2800_fpu32.lib : atoi.obj (.text)
                  00017014    00000031     sys_tick.obj (.text)
                  00017045    0000002e     rts2800_fpu32.lib : ltoa.obj (.text)
                  00017073    0000002a                       : fd_cmp28.obj (.text)
                  0001709d    0000002a                       : l_div28.obj (.text)
                  000170c7    00000029                       : exit.obj (.text)
                  000170f0    00000028     F2837xD_PieCtrl.obj (.text)
                  00017118    00000026     F2837xD_PieVect.obj (.text)
                  0001713e    00000025     rts2800_fpu32.lib : fs_toullfpu32.obj (.text)
                  00017163    00000024                       : cpy_tbl.obj (.text)
                  00017187    00000024                       : s_copysign.obj (.text)
                  000171ab    00000022                       : i_div28.obj (.text)
                  000171cd    00000021                       : fd_toi28.obj (.text)
                  000171ee    0000001f                       : fd_tol28.obj (.text)
                  0001720d    0000001e                       : ll_cmp28.obj (.text)
                  0001722b    0000001e                       : memcpy.obj (.text)
                  00017249    0000001d                       : i_tofd28.obj (.text)
                  00017266    0000001c                       : fs_tofdfpu32.obj (.text)
                  00017282    0000001c                       : l_tofd28.obj (.text)
                  0001729e    0000001b                       : memmov.obj (.text)
                  000172b9    00000019                       : args_main.obj (.text)
                  000172d2    00000018                       : ll_aox28.obj (.text)
                  000172ea    00000018                       : strncmp.obj (.text)
                  00017302    00000017     bsp_init.obj (.text)
                  00017319    00000016     rts2800_fpu32.lib : ul_tofd28.obj (.text)
                  0001732f    00000014                       : ll_mpy28.obj (.text)
                  00017343    00000012     usbdhandler.obj (.text)
                  00017355    00000011     rts2800_fpu32.lib : ull_tofsfpu32.obj (.text)
                  00017366    00000010     sys_schd.obj (.text)
                  00017376    0000000f     main.obj (.text)
                  00017385    0000000f     interrupt.obj (.text:retain)
                  00017394    0000000e     rts2800_fpu32.lib : fd_sub28.obj (.text)
                  000173a2    0000000d                       : memccpy.obj (.text)
                  000173af    0000000c                       : memset.obj (.text)
                  000173bb    0000000c                       : strchr.obj (.text)
                  000173c7    0000000b                       : strrchr.obj (.text)
                  000173d2    0000000a                       : strcmp.obj (.text)
                  000173dc    00000009                       : _lock.obj (.text)
                  000173e5    00000009                       : fd_neg28.obj (.text)
                  000173ee    00000008                       : strlen.obj (.text)
                  000173f6    00000007     root.obj (.text)
                  000173fd    00000005     dev_init.obj (.text)
                  00017402    00000005     rts2800_fpu32.lib : strcpy.obj (.text)
                  00017407    00000004     sys_fault.obj (.text)
                  0001740b    00000003     F2837xD_DBGIER.obj (.text)
                  0001740e    00000003     portASM.obj (.text)
                  00017411    00000002     rts2800_fpu32.lib : pre_init.obj (.text)

.reset     0    003fffc0    00000002     DSECT
                  003fffc0    00000002     rts2800_fpu32.lib : boot28.obj (.reset)

AdcaResultFile 
*          1    00000b00    00000018     UNINITIALIZED
                  00000b00    00000018     F2837xD_GlobalVariableDefs.obj (AdcaResultFile)

AdcbResultFile 
*          1    00000b20    00000018     UNINITIALIZED
                  00000b20    00000018     F2837xD_GlobalVariableDefs.obj (AdcbResultFile)

AdccResultFile 
*          1    00000b40    00000018     UNINITIALIZED
                  00000b40    00000018     F2837xD_GlobalVariableDefs.obj (AdccResultFile)

AdcdResultFile 
*          1    00000b60    00000018     UNINITIALIZED
                  00000b60    00000018     F2837xD_GlobalVariableDefs.obj (AdcdResultFile)

Cla1RegsFile 
*          1    00001400    0000003e     UNINITIALIZED
                  00001400    0000003e     F2837xD_GlobalVariableDefs.obj (Cla1RegsFile)

.stack     1    0000b800    00000800     UNINITIALIZED
                  0000b800    00000800     --HOLE--

.TI.ramfunc 
*          0    0000c000    00000008     
                  0000c000    00000004     F2837xD_usDelay.obj (.TI.ramfunc)
                  0000c004    00000004     sysctl.obj (.TI.ramfunc)

PUTBUFFER 
*          1    0003fc00    00000080     UNINITIALIZED
                  0003fc00    00000080     F2837xD_Ipc_Driver.obj (PUTBUFFER)

PUTWRITEIDX 
*          1    0003fc80    00000004     UNINITIALIZED
                  0003fc80    00000004     F2837xD_Ipc_Driver.obj (PUTWRITEIDX)

GETREADIDX 
*          1    0003fc84    00000004     UNINITIALIZED
                  0003fc84    00000004     F2837xD_Ipc_Driver.obj (GETREADIDX)

GETBUFFER 
*          0    0003f800    00000080     DSECT
                  0003f800    00000080     F2837xD_Ipc_Driver.obj (GETBUFFER)

GETWRITEIDX 
*          0    0003f880    00000004     DSECT
                  0003f880    00000004     F2837xD_Ipc_Driver.obj (GETWRITEIDX)

PUTREADIDX 
*          0    0003f884    00000004     DSECT
                  0003f884    00000004     F2837xD_Ipc_Driver.obj (PUTREADIDX)

CpuTimer0RegsFile 
*          1    00000c00    00000008     UNINITIALIZED
                  00000c00    00000008     F2837xD_GlobalVariableDefs.obj (CpuTimer0RegsFile)

CpuTimer1RegsFile 
*          1    00000c08    00000008     UNINITIALIZED
                  00000c08    00000008     F2837xD_GlobalVariableDefs.obj (CpuTimer1RegsFile)

CpuTimer2RegsFile 
*          1    00000c10    00000008     UNINITIALIZED
                  00000c10    00000008     F2837xD_GlobalVariableDefs.obj (CpuTimer2RegsFile)

PieCtrlRegsFile 
*          1    00000ce0    0000001a     UNINITIALIZED
                  00000ce0    0000001a     F2837xD_GlobalVariableDefs.obj (PieCtrlRegsFile)

PieVectTableFile 
*          1    00000d00    000001c0     UNINITIALIZED
                  00000d00    000001c0     F2837xD_GlobalVariableDefs.obj (PieVectTableFile)

EmuKeyVar 
*          1    00000d00    00000001     UNINITIALIZED
                  00000d00    00000001     F2837xD_GlobalVariableDefs.obj (EmuKeyVar)

EmuBModeVar 
*          1    00000d01    00000001     UNINITIALIZED
                  00000d01    00000001     F2837xD_GlobalVariableDefs.obj (EmuBModeVar)

FlashCallbackVar 
*          1    00000d02    00000000     UNINITIALIZED

FlashScalingVar 
*          1    00000d02    00000000     UNINITIALIZED

DmaRegsFile 
*          1    00001000    000000e0     UNINITIALIZED
                  00001000    000000e0     F2837xD_GlobalVariableDefs.obj (DmaRegsFile)

EPwm1RegsFile 
*          1    00004000    00000100     UNINITIALIZED
                  00004000    00000100     F2837xD_GlobalVariableDefs.obj (EPwm1RegsFile)

EPwm2RegsFile 
*          1    00004100    00000100     UNINITIALIZED
                  00004100    00000100     F2837xD_GlobalVariableDefs.obj (EPwm2RegsFile)

EPwm3RegsFile 
*          1    00004200    00000100     UNINITIALIZED
                  00004200    00000100     F2837xD_GlobalVariableDefs.obj (EPwm3RegsFile)

EPwm4RegsFile 
*          1    00004300    00000100     UNINITIALIZED
                  00004300    00000100     F2837xD_GlobalVariableDefs.obj (EPwm4RegsFile)

EPwm5RegsFile 
*          1    00004400    00000100     UNINITIALIZED
                  00004400    00000100     F2837xD_GlobalVariableDefs.obj (EPwm5RegsFile)

EPwm6RegsFile 
*          1    00004500    00000100     UNINITIALIZED
                  00004500    00000100     F2837xD_GlobalVariableDefs.obj (EPwm6RegsFile)

EPwm7RegsFile 
*          1    00004600    00000100     UNINITIALIZED
                  00004600    00000100     F2837xD_GlobalVariableDefs.obj (EPwm7RegsFile)

EPwm8RegsFile 
*          1    00004700    00000100     UNINITIALIZED
                  00004700    00000100     F2837xD_GlobalVariableDefs.obj (EPwm8RegsFile)

EPwm9RegsFile 
*          1    00004800    00000100     UNINITIALIZED
                  00004800    00000100     F2837xD_GlobalVariableDefs.obj (EPwm9RegsFile)

EPwm10RegsFile 
*          1    00004900    00000100     UNINITIALIZED
                  00004900    00000100     F2837xD_GlobalVariableDefs.obj (EPwm10RegsFile)

EPwm11RegsFile 
*          1    00004a00    00000100     UNINITIALIZED
                  00004a00    00000100     F2837xD_GlobalVariableDefs.obj (EPwm11RegsFile)

EPwm12RegsFile 
*          1    00004b00    00000100     UNINITIALIZED
                  00004b00    00000100     F2837xD_GlobalVariableDefs.obj (EPwm12RegsFile)

ECap1RegsFile 
*          1    00005000    00000020     UNINITIALIZED
                  00005000    00000020     F2837xD_GlobalVariableDefs.obj (ECap1RegsFile)

ECap2RegsFile 
*          1    00005020    00000020     UNINITIALIZED
                  00005020    00000020     F2837xD_GlobalVariableDefs.obj (ECap2RegsFile)

ECap3RegsFile 
*          1    00005040    00000020     UNINITIALIZED
                  00005040    00000020     F2837xD_GlobalVariableDefs.obj (ECap3RegsFile)

ECap4RegsFile 
*          1    00005060    00000020     UNINITIALIZED
                  00005060    00000020     F2837xD_GlobalVariableDefs.obj (ECap4RegsFile)

ECap5RegsFile 
*          1    00005080    00000020     UNINITIALIZED
                  00005080    00000020     F2837xD_GlobalVariableDefs.obj (ECap5RegsFile)

ECap6RegsFile 
*          1    000050a0    00000020     UNINITIALIZED
                  000050a0    00000020     F2837xD_GlobalVariableDefs.obj (ECap6RegsFile)

EQep1RegsFile 
*          1    00005100    00000022     UNINITIALIZED
                  00005100    00000022     F2837xD_GlobalVariableDefs.obj (EQep1RegsFile)

EQep2RegsFile 
*          1    00005140    00000022     UNINITIALIZED
                  00005140    00000022     F2837xD_GlobalVariableDefs.obj (EQep2RegsFile)

EQep3RegsFile 
*          1    00005180    00000022     UNINITIALIZED
                  00005180    00000022     F2837xD_GlobalVariableDefs.obj (EQep3RegsFile)

DacaRegsFile 
*          1    00005c00    00000008     UNINITIALIZED
                  00005c00    00000008     F2837xD_GlobalVariableDefs.obj (DacaRegsFile)

DacbRegsFile 
*          1    00005c10    00000008     UNINITIALIZED
                  00005c10    00000008     F2837xD_GlobalVariableDefs.obj (DacbRegsFile)

DaccRegsFile 
*          1    00005c20    00000008     UNINITIALIZED
                  00005c20    00000008     F2837xD_GlobalVariableDefs.obj (DaccRegsFile)

Sdfm1RegsFile 
*          1    00005e00    00000080     UNINITIALIZED
                  00005e00    00000080     F2837xD_GlobalVariableDefs.obj (Sdfm1RegsFile)

Sdfm2RegsFile 
*          1    00005e80    00000080     UNINITIALIZED
                  00005e80    00000080     F2837xD_GlobalVariableDefs.obj (Sdfm2RegsFile)

McbspaRegsFile 
*          1    00006000    00000024     UNINITIALIZED
                  00006000    00000024     F2837xD_GlobalVariableDefs.obj (McbspaRegsFile)

McbspbRegsFile 
*          1    00006040    00000024     UNINITIALIZED
                  00006040    00000024     F2837xD_GlobalVariableDefs.obj (McbspbRegsFile)

SpiaRegsFile 
*          1    00006100    00000010     UNINITIALIZED
                  00006100    00000010     F2837xD_GlobalVariableDefs.obj (SpiaRegsFile)

SpibRegsFile 
*          1    00006110    00000010     UNINITIALIZED
                  00006110    00000010     F2837xD_GlobalVariableDefs.obj (SpibRegsFile)

SpicRegsFile 
*          1    00006120    00000010     UNINITIALIZED
                  00006120    00000010     F2837xD_GlobalVariableDefs.obj (SpicRegsFile)

UppRegsFile 
*          1    00006200    00000048     UNINITIALIZED
                  00006200    00000048     F2837xD_GlobalVariableDefs.obj (UppRegsFile)

WdRegsFile 
*          1    00007000    0000002b     UNINITIALIZED
                  00007000    0000002b     F2837xD_GlobalVariableDefs.obj (WdRegsFile)

NmiIntruptRegsFile 
*          1    00007060    00000007     UNINITIALIZED
                  00007060    00000007     F2837xD_GlobalVariableDefs.obj (NmiIntruptRegsFile)

XintRegsFile 
*          1    00007070    0000000b     UNINITIALIZED
                  00007070    0000000b     F2837xD_GlobalVariableDefs.obj (XintRegsFile)

SciaRegsFile 
*          1    00007200    00000010     UNINITIALIZED
                  00007200    00000010     F2837xD_GlobalVariableDefs.obj (SciaRegsFile)

ScibRegsFile 
*          1    00007210    00000010     UNINITIALIZED
                  00007210    00000010     F2837xD_GlobalVariableDefs.obj (ScibRegsFile)

ScicRegsFile 
*          1    00007220    00000010     UNINITIALIZED
                  00007220    00000010     F2837xD_GlobalVariableDefs.obj (ScicRegsFile)

ScidRegsFile 
*          1    00007230    00000010     UNINITIALIZED
                  00007230    00000010     F2837xD_GlobalVariableDefs.obj (ScidRegsFile)

I2caRegsFile 
*          1    00007300    00000022     UNINITIALIZED
                  00007300    00000022     F2837xD_GlobalVariableDefs.obj (I2caRegsFile)

I2cbRegsFile 
*          1    00007340    00000022     UNINITIALIZED
                  00007340    00000022     F2837xD_GlobalVariableDefs.obj (I2cbRegsFile)

AdcaRegsFile 
*          1    00007400    00000080     UNINITIALIZED
                  00007400    00000080     F2837xD_GlobalVariableDefs.obj (AdcaRegsFile)

AdcbRegsFile 
*          1    00007480    00000080     UNINITIALIZED
                  00007480    00000080     F2837xD_GlobalVariableDefs.obj (AdcbRegsFile)

AdccRegsFile 
*          1    00007500    00000080     UNINITIALIZED
                  00007500    00000080     F2837xD_GlobalVariableDefs.obj (AdccRegsFile)

AdcdRegsFile 
*          1    00007580    00000080     UNINITIALIZED
                  00007580    00000080     F2837xD_GlobalVariableDefs.obj (AdcdRegsFile)

CanaRegsFile 
*          1    00048000    00000164     UNINITIALIZED
                  00048000    00000164     F2837xD_GlobalVariableDefs.obj (CanaRegsFile)

CanbRegsFile 
*          1    0004a000    00000164     UNINITIALIZED
                  0004a000    00000164     F2837xD_GlobalVariableDefs.obj (CanbRegsFile)

AnalogSubsysRegsFile 
*          1    0005d180    00000048     UNINITIALIZED
                  0005d180    00000048     F2837xD_GlobalVariableDefs.obj (AnalogSubsysRegsFile)

Cla1SoftIntRegsFile 
*          1    00000ce0    00000004     DSECT
                  00000ce0    00000004     F2837xD_GlobalVariableDefs.obj (Cla1SoftIntRegsFile)

Cmpss1RegsFile 
*          1    00005c80    00000020     UNINITIALIZED
                  00005c80    00000020     F2837xD_GlobalVariableDefs.obj (Cmpss1RegsFile)

Cmpss2RegsFile 
*          1    00005ca0    00000020     UNINITIALIZED
                  00005ca0    00000020     F2837xD_GlobalVariableDefs.obj (Cmpss2RegsFile)

Cmpss3RegsFile 
*          1    00005cc0    00000020     UNINITIALIZED
                  00005cc0    00000020     F2837xD_GlobalVariableDefs.obj (Cmpss3RegsFile)

Cmpss4RegsFile 
*          1    00005ce0    00000020     UNINITIALIZED
                  00005ce0    00000020     F2837xD_GlobalVariableDefs.obj (Cmpss4RegsFile)

Cmpss5RegsFile 
*          1    00005d00    00000020     UNINITIALIZED
                  00005d00    00000020     F2837xD_GlobalVariableDefs.obj (Cmpss5RegsFile)

Cmpss6RegsFile 
*          1    00005d20    00000020     UNINITIALIZED
                  00005d20    00000020     F2837xD_GlobalVariableDefs.obj (Cmpss6RegsFile)

Cmpss7RegsFile 
*          1    00005d40    00000020     UNINITIALIZED
                  00005d40    00000020     F2837xD_GlobalVariableDefs.obj (Cmpss7RegsFile)

Cmpss8RegsFile 
*          1    00005d60    00000020     UNINITIALIZED
                  00005d60    00000020     F2837xD_GlobalVariableDefs.obj (Cmpss8RegsFile)

InputXbarRegsFile 
*          1    00007900    00000020     UNINITIALIZED
                  00007900    00000020     F2837xD_GlobalVariableDefs.obj (InputXbarRegsFile)

XbarRegsFile 
*          1    00007920    00000020     UNINITIALIZED
                  00007920    00000020     F2837xD_GlobalVariableDefs.obj (XbarRegsFile)

SyncSocRegsFile 
*          1    00007940    00000006     UNINITIALIZED
                  00007940    00000006     F2837xD_GlobalVariableDefs.obj (SyncSocRegsFile)

DmaClaSrcSelRegsFile 
*          1    00007980    0000001a     UNINITIALIZED
                  00007980    0000001a     F2837xD_GlobalVariableDefs.obj (DmaClaSrcSelRegsFile)

EPwmXbarRegsFile 
*          1    00007a00    00000040     UNINITIALIZED
                  00007a00    00000040     F2837xD_GlobalVariableDefs.obj (EPwmXbarRegsFile)

OutputXbarRegsFile 
*          1    00007a80    00000040     UNINITIALIZED
                  00007a80    00000040     F2837xD_GlobalVariableDefs.obj (OutputXbarRegsFile)

GpioCtrlRegsFile 
*          1    00007c00    00000180     UNINITIALIZED
                  00007c00    00000180     F2837xD_GlobalVariableDefs.obj (GpioCtrlRegsFile)

GpioDataRegsFile 
*          1    00007f00    00000030     UNINITIALIZED
                  00007f00    00000030     F2837xD_GlobalVariableDefs.obj (GpioDataRegsFile)

.econst.1 
*          1    00009ffc    00000004     
                  00009ffc    00000004     usbdaudio.obj (.econst:_g_sAudioConfigSection)

.econst.2 
*          1    0000a5fc    00000004     
                  0000a5fc    00000004     usbdaudio.obj (.econst:_g_sAudioControlInterfaceSection)

Emif1RegsFile 
*          1    00047000    00000070     UNINITIALIZED
                  00047000    00000070     F2837xD_GlobalVariableDefs.obj (Emif1RegsFile)

Emif2RegsFile 
*          1    00047800    00000070     UNINITIALIZED
                  00047800    00000070     F2837xD_GlobalVariableDefs.obj (Emif2RegsFile)

IpcRegsFile 
*          1    00050000    00000024     UNINITIALIZED
                  00050000    00000024     F2837xD_GlobalVariableDefs.obj (IpcRegsFile)

FlashPumpSemaphoreRegsFile 
*          1    00050024    00000002     UNINITIALIZED
                  00050024    00000002     F2837xD_GlobalVariableDefs.obj (FlashPumpSemaphoreRegsFile)

RomPrefetchRegsFile 
*          1    0005e608    00000002     UNINITIALIZED
                  0005e608    00000002     F2837xD_GlobalVariableDefs.obj (RomPrefetchRegsFile)

DcsmZ1RegsFile 
*          1    0005f000    00000024     UNINITIALIZED
                  0005f000    00000024     F2837xD_GlobalVariableDefs.obj (DcsmZ1RegsFile)

DcsmZ2RegsFile 
*          1    0005f040    00000024     UNINITIALIZED
                  0005f040    00000024     F2837xD_GlobalVariableDefs.obj (DcsmZ2RegsFile)

DcsmCommonRegsFile 
*          1    0005f070    00000008     UNINITIALIZED
                  0005f070    00000008     F2837xD_GlobalVariableDefs.obj (DcsmCommonRegsFile)

MemCfgRegsFile 
*          1    0005f400    00000080     UNINITIALIZED
                  0005f400    00000080     F2837xD_GlobalVariableDefs.obj (MemCfgRegsFile)

Emif1ConfigRegsFile 
*          1    0005f480    00000020     UNINITIALIZED
                  0005f480    00000020     F2837xD_GlobalVariableDefs.obj (Emif1ConfigRegsFile)

Emif2ConfigRegsFile 
*          1    0005f4a0    00000020     UNINITIALIZED
                  0005f4a0    00000020     F2837xD_GlobalVariableDefs.obj (Emif2ConfigRegsFile)

AccessProtectionRegsFile 
*          1    0005f4c0    00000040     UNINITIALIZED
                  0005f4c0    00000040     F2837xD_GlobalVariableDefs.obj (AccessProtectionRegsFile)

MemoryErrorRegsFile 
*          1    0005f500    00000040     UNINITIALIZED
                  0005f500    00000040     F2837xD_GlobalVariableDefs.obj (MemoryErrorRegsFile)

RomWaitStateRegsFile 
*          1    0005f540    00000002     UNINITIALIZED
                  0005f540    00000002     F2837xD_GlobalVariableDefs.obj (RomWaitStateRegsFile)

Flash0CtrlRegsFile 
*          1    0005f800    00000182     UNINITIALIZED
                  0005f800    00000182     F2837xD_GlobalVariableDefs.obj (Flash0CtrlRegsFile)

Flash0EccRegsFile 
*          1    0005fb00    00000028     UNINITIALIZED
                  0005fb00    00000028     F2837xD_GlobalVariableDefs.obj (Flash0EccRegsFile)

DcsmZ1OtpFile 
*          1    00078000    00000020     NOLOAD SECTION
                  00078000    00000020     F2837xD_GlobalVariableDefs.obj (DcsmZ1OtpFile)

DcsmZ2OtpFile 
*          1    00078200    00000020     NOLOAD SECTION
                  00078200    00000020     F2837xD_GlobalVariableDefs.obj (DcsmZ2OtpFile)

DevCfgRegsFile 
*          1    0005d000    0000012e     UNINITIALIZED
                  0005d000    0000012e     F2837xD_GlobalVariableDefs.obj (DevCfgRegsFile)

ClkCfgRegsFile 
*          1    0005d200    00000032     UNINITIALIZED
                  0005d200    00000032     F2837xD_GlobalVariableDefs.obj (ClkCfgRegsFile)

CpuSysRegsFile 
*          1    0005d300    00000082     UNINITIALIZED
                  0005d300    00000082     F2837xD_GlobalVariableDefs.obj (CpuSysRegsFile)

freertos_text_portASM 
*          0    0000b000    0000011f     
                  0000b000    0000011f     portASM.obj (freertos_text_portASM)

.ebss.1    1    00008000    000007ff     UNINITIALIZED
                  00008000    00000790     dev_uart.obj (.ebss)
                  00008790    0000002b     usbdaudio.obj (.ebss)
                  000087bb    00000001     F2837xD_sci_io.obj (.ebss)
                  000087bc    00000002     rts2800_fpu32.lib : _lock.obj (.ebss:__lock)
                  000087be    00000002                       : _lock.obj (.ebss:__unlock)
                  000087c0    0000003e     usbhhub.obj (.ebss)
                  000087fe    00000001     rts2800_fpu32.lib : errno.obj (.ebss)

.ebss.2    1    00008800    00000800     UNINITIALIZED
                  00008800    000004e8     dev_spi.obj (.ebss)
                  00008ce8    00000018     F2837xD_CpuTimers.obj (.ebss)
                  00008d00    000002a4     bsp_gpio.obj (.ebss)
                  00008fa4    00000016     usbhhidkeyboard.obj (.ebss)
                  00008fba    00000006     F2837xD_TempSensorConv.obj (.ebss)
                  00008fc0    00000032     usbhhid.obj (.ebss)
                  00008ff2    0000000e     getopt.obj (.ebss)

.ebss.3    1    00009000    00000800     UNINITIALIZED
                  00009000    00000390     sys_std.obj (.ebss)
                  00009390    0000002a     usbhaudio.obj (.ebss)
                  000093ba    00000006     port.obj (.ebss)
                  000093c0    0000038e     usbhostenum.obj (.ebss)
                  0000974e    00000031     usbdcdc.obj (.ebss)
                  0000977f    00000001     --HOLE--
                  00009780    00000080     usbdenum.obj (.ebss)

.ebss.4    1    00009800    0000057e     UNINITIALIZED
                  00009800    0000029a     comtest.obj (.ebss)
                  00009a9a    00000025     usbddfu-rt.obj (.ebss)
                  00009abf    00000001     --HOLE--
                  00009ac0    00000296     spitest.obj (.ebss)
                  00009d56    00000028     queue.obj (.ebss)

.ebss.5    1    00009d80    0000027c     UNINITIALIZED
                  00009d80    000001e4     getoptbuf.obj (.ebss)
                  00009f64    00000014     usbdcomp.obj (.ebss)
                  00009f78    00000008     bsp_clk.obj (.ebss)
                  00009f80    0000007c     tasks.obj (.ebss)

.ebss.6    1    0000a000    000005fc     UNINITIALIZED
                  0000a000    000001c0     dev_dma.obj (.ebss)
                  0000a1c0    0000019e     dev_timer.obj (.ebss)
                  0000a35e    00000022     usbdhidmouse.obj (.ebss)
                  0000a380    00000140     crc.obj (.ebss)
                  0000a4c0    0000008c     usbdma.obj (.ebss)
                  0000a54c    00000024     usbdhidkeyb.obj (.ebss)
                  0000a570    00000010     usbhhidmouse.obj (.ebss)
                  0000a580    0000007c     timers.obj (.ebss)

.ebss.7    1    0000a600    0000007e     UNINITIALIZED
                  0000a600    00000078     F2837xD_struct.obj (.ebss)
                  0000a678    00000006     rts2800_fpu32.lib : exit.obj (.ebss)

.ebss.8    1    0000a680    0000003e     UNINITIALIZED
                  0000a680    0000001f     usbdbulk.obj (.ebss)
                  0000a69f    00000001     --HOLE--
                  0000a6a0    0000001e     usbtick.obj (.ebss)

.ebss.9    1    0000a6c0    0000002a     UNINITIALIZED
                  0000a6c0    00000012     usbdhid.obj (.ebss)
                  0000a6d2    0000000e     usbhmsc.obj (.ebss)
                  0000a6e0    0000000a     usbmode.obj (.ebss)

.econst.3 
*          1    0000a6ea    00000114     
                  0000a6ea    00000108     dev_timer.obj (.econst:.string)
                  0000a7f2    0000000c     rts2800_fpu32.lib : strtod.obj (.econst:_powerof10)

.econst.4 
*          1    0000a800    00000800     
                  0000a800    00000309     comtest.obj (.econst:.string)
                  0000ab09    00000001     --HOLE-- [fill = 0]
                  0000ab0a    00000266     spitest.obj (.econst:.string)
                  0000ad70    000001c0     F2837xD_PieVect.obj (.econst:_PieVectTableInit)
                  0000af30    00000093     bsp_uart.obj (.econst:.string)
                  0000afc3    00000034     usbdaudio.obj (.econst:_g_pui8AudioControlInterface)
                  0000aff7    00000009     usbdhidkeyb.obj (.econst:_g_sKeybHIDDescriptor)

.econst.5 
*          1    00018000    00000770     
                  00018000    00000106     bsp_clk.obj (.econst:.string)
                  00018106    00000101     rts2800_fpu32.lib : ctype.obj (.econst:.string:__ctypes_)
                  00018207    00000001     --HOLE-- [fill = 0]
                  00018208    000000d4     bsp_spi.obj (.econst:.string)
                  000182dc    0000005b     timers.obj (.econst:.string)
                  00018337    00000001     --HOLE-- [fill = 0]
                  00018338    00000055     stream_buffer.obj (.econst:.string)
                  0001838d    00000001     --HOLE-- [fill = 0]
                  0001838e    00000054     event_groups.obj (.econst:.string)
                  000183e2    00000053     tasks.obj (.econst:.string)
                  00018435    00000001     --HOLE-- [fill = 0]
                  00018436    0000004d     queue.obj (.econst:.string)
                  00018483    00000001     --HOLE-- [fill = 0]
                  00018484    0000004c     port.obj (.econst:.string)
                  000184d0    00000042     dev_dma.obj (.econst:.string)
                  00018512    00000034     usbdaudio.obj (.econst:_g_pui8AudioStreamInterface)
                  00018546    00000031     dev_uart.obj (.econst:.string)
                  00018577    00000001     --HOLE-- [fill = 0]
                  00018578    00000028     rts2800_fpu32.lib : strtold.obj (.econst:_digits)
                  000185a0    00000026                       : _printfi.obj (.econst:.string)
                  000185c6    00000024     dev_spi.obj (.econst:.string)
                  000185ea    00000024     rts2800_fpu32.lib : strtold.obj (.econst:_powerof10)
                  0001860e    00000023     usbdcdc.obj (.econst:_g_pui8CDCSerCommInterface)
                  00018631    00000001     --HOLE-- [fill = 0]
                  00018632    0000001c     rts2800_fpu32.lib : _printfi.obj (.econst)
                  0001864e    0000001c                       : s_scalbn.obj (.econst)
                  0001866a    0000001a     usbdenum.obj (.econst:_g_psUSBDStdRequests)
                  00018684    00000017     usbdbulk.obj (.econst:_g_pui8BulkInterface)
                  0001869b    00000017     usbdcdc.obj (.econst:_g_pui8CDCSerDataInterface)
                  000186b2    00000014     sys_tick.obj (.econst:.string)
                  000186c6    00000014     rts2800_fpu32.lib : strtod.obj (.econst:_digits)
                  000186da    0000000c     usb_hal.obj (.econst)
                  000186e6    00000009     usbdhidmouse.obj (.econst:_g_sMouseHIDDescriptor)
                  000186ef    00000001     --HOLE-- [fill = 0]
                  000186f0    00000008     rts2800_fpu32.lib : s_frexp.obj (.econst)
                  000186f8    00000008                       : strtold.obj (.econst)
                  00018700    00000007                       : _scanfi.obj (.econst:.string:_flit$1)
                  00018707    00000007     usbdhidkeyb.obj (.econst:_g_pui8HIDInEndpoint)
                  0001870e    00000007     usbdhidmouse.obj (.econst:_g_pui8HIDInEndpoint)
                  00018715    00000007     usbdhidkeyb.obj (.econst:_g_pui8HIDOutEndpoint)
                  0001871c    00000006     rts2800_fpu32.lib : _scanfi.obj (.econst:.string:_barr$2)
                  00018722    00000006     getopt.obj (.econst:.string)
                  00018728    00000004     usbdaudio.obj (.econst:_g_sAudioStreamInterfaceSection)
                  0001872c    00000004     usbdbulk.obj (.econst:_g_sBulkConfigSection)
                  00018730    00000004     usbdbulk.obj (.econst:_g_sBulkInterfaceSection)
                  00018734    00000004     usbdcdc.obj (.econst:_g_sCDCSerCommInterfaceSection)
                  00018738    00000004     usbdcdc.obj (.econst:_g_sCDCSerConfigSection)
                  0001873c    00000004     usbdcdc.obj (.econst:_g_sCDCSerDataInterfaceSection)
                  00018740    00000004     usbddfu-rt.obj (.econst:_g_sDFUConfigSection)
                  00018744    00000004     usbddfu-rt.obj (.econst:_g_sDFUFunctionalDescSection)
                  00018748    00000004     usbddfu-rt.obj (.econst:_g_sDFUInterfaceSection)
                  0001874c    00000004     usbdhidkeyb.obj (.econst:_g_sHIDConfigSection)
                  00018750    00000004     usbdhidmouse.obj (.econst:_g_sHIDConfigSection)
                  00018754    00000004     usbdhidkeyb.obj (.econst:_g_sHIDInEndpointSection)
                  00018758    00000004     usbdhidmouse.obj (.econst:_g_sHIDInEndpointSection)
                  0001875c    00000004     usbdhidkeyb.obj (.econst:_g_sHIDInterfaceSection)
                  00018760    00000004     usbdhidmouse.obj (.econst:_g_sHIDInterfaceSection)
                  00018764    00000004     usbdhidkeyb.obj (.econst:_g_sHIDOutEndpointSection)
                  00018768    00000004     usbdaudio.obj (.econst:_g_sIADAudioConfigSection)
                  0001876c    00000004     usbdcdc.obj (.econst:_g_sIADSerConfigSection)

MODULE SUMMARY

       Module                           code    initialized data   uninitialized data
       ------                           ----    ----------------   ------------------
    ./src/bsp/
       cpu_isr.obj                      1413    0                  0                 
       bsp_gpio.obj                     118     0                  676               
       bsp_uart.obj                     499     147                0                 
       bsp_clk.obj                      369     262                8                 
       bsp_spi.obj                      402     212                0                 
       bsp_dma.obj                      370     0                  0                 
       bsp_timer.obj                    229     0                  0                 
       bsp_init.obj                     23      0                  0                 
       main.obj                         15      0                  0                 
    +--+--------------------------------+-------+------------------+--------------------+
       Total:                           3438    621                684               
                                                                                     
    ./src/bsp/boot/
       F2837xD_CodeStartBranch.obj      2       0                  0                 
    +--+--------------------------------+-------+------------------+--------------------+
       Total:                           2       0                  0                 
                                                                                     
    ./src/bsp/drv/
       F2837xD_GlobalVariableDefs.obj   0       0                  8759              
       F2837xD_SysCtrl.obj              827     0                  0                 
       F2837xD_Gpio.obj                 580     0                  0                 
       F2837xD_PieVect.obj              38      448                0                 
       F2837xD_Ipc_Driver.obj           0       0                  136               
       F2837xD_struct.obj               0       0                  120               
       F2837xD_PieCtrl.obj              40      0                  0                 
       F2837xD_CpuTimers.obj            0       0                  24                
       F2837xD_TempSensorConv.obj       0       0                  6                 
       F2837xD_usDelay.obj              4       0                  0                 
       F2837xD_DBGIER.obj               3       0                  0                 
       F2837xD_sci_io.obj               0       0                  1                 
    +--+--------------------------------+-------+------------------+--------------------+
       Total:                           1492    448                9046              
                                                                                     
    ./src/bsp/drv/driverlib/
       usb.obj                          2057    0                  0                 
       sysctl.obj                       583     0                  0                 
       interrupt.obj                    473     0                  0                 
       usb_hal.obj                      147     12                 0                 
    +--+--------------------------------+-------+------------------+--------------------+
       Total:                           3260    12                 0                 
                                                                                     
    ./src/bsp/drv/usblib/
       usbmode.obj                      601     0                  10                
       usbdma.obj                       212     0                  140               
       usbdesc.obj                      203     0                  0                 
       usbtick.obj                      130     0                  30                
    +--+--------------------------------+-------+------------------+--------------------+
       Total:                           1146    0                  180               
                                                                                     
    ./src/bsp/drv/usblib/device/
       usbdenum.obj                     2124    26                 128               
       usbdconfig.obj                   605     0                  0                 
       usbdcdesc.obj                    336     0                  0                 
       usbdaudio.obj                    0       120                43                
       usbdcdc.obj                      0       74                 49                
       usbdhidkeyb.obj                  0       39                 36                
       usbdbulk.obj                     0       31                 31                
       usbdhidmouse.obj                 0       28                 34                
       usbddfu-rt.obj                   0       12                 37                
       usbdcomp.obj                     0       0                  20                
       usbdhandler.obj                  18      0                  0                 
       usbdhid.obj                      0       0                  18                
    +--+--------------------------------+-------+------------------+--------------------+
       Total:                           3083    330                396               
                                                                                     
    ./src/bsp/drv/usblib/host/
       usbhostenum.obj                  5597    0                  910               
       usbhhub.obj                      1024    0                  62                
       usbhhid.obj                      0       0                  50                
       usbhaudio.obj                    0       0                  42                
       usbhhidkeyboard.obj              0       0                  22                
       usbhhidmouse.obj                 0       0                  16                
       usbhmsc.obj                      0       0                  14                
    +--+--------------------------------+-------+------------------+--------------------+
       Total:                           6621    0                  1116              
                                                                                     
    ./src/bsp/utils/
       dev_spi.obj                      2340    36                 1256              
       dev_uart.obj                     1083    49                 1936              
       dev_timer.obj                    1179    264                414               
       dev_dma.obj                      1045    66                 448               
       io.obj                           420     0                  0                 
       dev_init.obj                     5       0                  0                 
    +--+--------------------------------+-------+------------------+--------------------+
       Total:                           6072    415                4054              
                                                                                     
    ./src/core1/app/
       spitest.obj                      604     614                662               
       comtest.obj                      0       777                666               
       root.obj                         7       0                  0                 
    +--+--------------------------------+-------+------------------+--------------------+
       Total:                           611     1391               1328              
                                                                                     
    ./src/core1/os/
       tasks.obj                        3186    83                 124               
       queue.obj                        2095    77                 40                
       timers.obj                       894     91                 124               
       port.obj                         386     76                 6                 
       portASM.obj                      287     3                  0                 
       list.obj                         147     0                  0                 
       stream_buffer.obj                0       85                 0                 
       event_groups.obj                 0       84                 0                 
    +--+--------------------------------+-------+------------------+--------------------+
       Total:                           6995    499                294               
                                                                                     
    ./src/core1/sys/
       sys_std.obj                      189     0                  912               
       sys_tick.obj                     49      20                 0                 
       sys_schd.obj                     16      0                  0                 
       sys_fault.obj                    4       0                  0                 
    +--+--------------------------------+-------+------------------+--------------------+
       Total:                           258     20                 912               
                                                                                     
    ./src/lib/
       crc.obj                          80      0                  320               
    +--+--------------------------------+-------+------------------+--------------------+
       Total:                           80      0                  320               
                                                                                     
    ./src/lib/getopt/
       getoptbuf.obj                    185     0                  484               
       getopt.obj                       372     6                  14                
    +--+--------------------------------+-------+------------------+--------------------+
       Total:                           557     6                  498               
                                                                                     
    /home/cg/Work/McMaster/Prj_TMS320F28379D/Prj_Controller/src/lib/TI/rts2800_fpu32.lib
       _printfi.obj                     3094    66                 0                 
       _scanfi.obj                      1645    13                 0                 
       strtold.obj                      376     84                 0                 
       strtoll.obj                      366     0                  0                 
       strtod.obj                       285     32                 0                 
       strtoull.obj                     293     0                  0                 
       ll_div28.obj                     263     0                  0                 
       ctype.obj                        0       257                0                 
       strtol.obj                       222     0                  0                 
       s_scalbn.obj                     188     28                 0                 
       strtoul.obj                      179     0                  0                 
       fd_add28.obj                     156     0                  0                 
       fd_div28.obj                     139     0                  0                 
       fs_div28.obj                     136     0                  0                 
       fd_mpy28.obj                     131     0                  0                 
       sscanf.obj                       109     0                  0                 
       s_frexp.obj                      90      8                  0                 
       vsnprintf.obj                    87      0                  0                 
       boot28.obj                       86      0                  0                 
       atoi.obj                         49      0                  0                 
       exit.obj                         41      0                  6                 
       ltoa.obj                         46      0                  0                 
       fd_cmp28.obj                     42      0                  0                 
       l_div28.obj                      42      0                  0                 
       fs_toullfpu32.obj                37      0                  0                 
       cpy_tbl.obj                      36      0                  0                 
       s_copysign.obj                   36      0                  0                 
       i_div28.obj                      34      0                  0                 
       fd_toi28.obj                     33      0                  0                 
       fd_tol28.obj                     31      0                  0                 
       ll_cmp28.obj                     30      0                  0                 
       memcpy.obj                       30      0                  0                 
       i_tofd28.obj                     29      0                  0                 
       fs_tofdfpu32.obj                 28      0                  0                 
       l_tofd28.obj                     28      0                  0                 
       memmov.obj                       27      0                  0                 
       args_main.obj                    25      0                  0                 
       ll_aox28.obj                     24      0                  0                 
       strncmp.obj                      24      0                  0                 
       ul_tofd28.obj                    22      0                  0                 
       ll_mpy28.obj                     20      0                  0                 
       ull_tofsfpu32.obj                17      0                  0                 
       fd_sub28.obj                     14      0                  0                 
       _lock.obj                        9       0                  4                 
       memccpy.obj                      13      0                  0                 
       memset.obj                       12      0                  0                 
       strchr.obj                       12      0                  0                 
       strrchr.obj                      11      0                  0                 
       strcmp.obj                       10      0                  0                 
       fd_neg28.obj                     9       0                  0                 
       strlen.obj                       8       0                  0                 
       strcpy.obj                       5       0                  0                 
       pre_init.obj                     2       0                  0                 
       errno.obj                        0       0                  1                 
       startup.obj                      1       0                  0                 
    +--+--------------------------------+-------+------------------+--------------------+
       Total:                           8682    488                11                
                                                                                     
       Stack:                           0       0                  2048              
    +--+--------------------------------+-------+------------------+--------------------+
       Grand Total:                     42297   4230               20887             


GLOBAL DATA SYMBOLS: SORTED BY DATA PAGE

address     data page           name
--------    ----------------    ----
00000b00      2c (00000b00)     _AdcaResultRegs
00000b20      2c (00000b00)     _AdcbResultRegs

00000b40      2d (00000b40)     _AdccResultRegs
00000b60      2d (00000b40)     _AdcdResultRegs

00000c00      30 (00000c00)     _CpuTimer0Regs
00000c08      30 (00000c00)     _CpuTimer1Regs
00000c10      30 (00000c00)     _CpuTimer2Regs

00000ce0      33 (00000cc0)     _Cla1SoftIntRegs
00000ce0      33 (00000cc0)     _PieCtrlRegs

00000d00      34 (00000d00)     _EmuKey
00000d00      34 (00000d00)     _PieVectTable
00000d01      34 (00000d00)     _EmuBMode

00001000      40 (00001000)     _DmaRegs

00001400      50 (00001400)     _Cla1Regs

00004000     100 (00004000)     _EPwm1Regs

00004100     104 (00004100)     _EPwm2Regs

00004200     108 (00004200)     _EPwm3Regs

00004300     10c (00004300)     _EPwm4Regs

00004400     110 (00004400)     _EPwm5Regs

00004500     114 (00004500)     _EPwm6Regs

00004600     118 (00004600)     _EPwm7Regs

00004700     11c (00004700)     _EPwm8Regs

00004800     120 (00004800)     _EPwm9Regs

00004900     124 (00004900)     _EPwm10Regs

00004a00     128 (00004a00)     _EPwm11Regs

00004b00     12c (00004b00)     _EPwm12Regs

00005000     140 (00005000)     _ECap1Regs
00005020     140 (00005000)     _ECap2Regs

00005040     141 (00005040)     _ECap3Regs
00005060     141 (00005040)     _ECap4Regs

00005080     142 (00005080)     _ECap5Regs
000050a0     142 (00005080)     _ECap6Regs

00005100     144 (00005100)     _EQep1Regs

00005140     145 (00005140)     _EQep2Regs

00005180     146 (00005180)     _EQep3Regs

00005c00     170 (00005c00)     _DacaRegs
00005c10     170 (00005c00)     _DacbRegs
00005c20     170 (00005c00)     _DaccRegs

00005c80     172 (00005c80)     _Cmpss1Regs
00005ca0     172 (00005c80)     _Cmpss2Regs

00005cc0     173 (00005cc0)     _Cmpss3Regs
00005ce0     173 (00005cc0)     _Cmpss4Regs

00005d00     174 (00005d00)     _Cmpss5Regs
00005d20     174 (00005d00)     _Cmpss6Regs

00005d40     175 (00005d40)     _Cmpss7Regs
00005d60     175 (00005d40)     _Cmpss8Regs

00005e00     178 (00005e00)     _Sdfm1Regs

00005e80     17a (00005e80)     _Sdfm2Regs

00006000     180 (00006000)     _McbspaRegs

00006040     181 (00006040)     _McbspbRegs

00006100     184 (00006100)     _SpiaRegs
00006110     184 (00006100)     _SpibRegs
00006120     184 (00006100)     _SpicRegs

00006200     188 (00006200)     _UppRegs

00007000     1c0 (00007000)     _WdRegs

00007060     1c1 (00007040)     _NmiIntruptRegs
00007070     1c1 (00007040)     _XintRegs

00007200     1c8 (00007200)     _SciaRegs
00007210     1c8 (00007200)     _ScibRegs
00007220     1c8 (00007200)     _ScicRegs
00007230     1c8 (00007200)     _ScidRegs

00007300     1cc (00007300)     _I2caRegs

00007340     1cd (00007340)     _I2cbRegs

00007400     1d0 (00007400)     _AdcaRegs

00007480     1d2 (00007480)     _AdcbRegs

00007500     1d4 (00007500)     _AdccRegs

00007580     1d6 (00007580)     _AdcdRegs

00007900     1e4 (00007900)     _InputXbarRegs
00007920     1e4 (00007900)     _XbarRegs

00007940     1e5 (00007940)     _SyncSocRegs

00007980     1e6 (00007980)     _DmaClaSrcSelRegs

00007a00     1e8 (00007a00)     _EPwmXbarRegs

00007a80     1ea (00007a80)     _OutputXbarRegs

00007c00     1f0 (00007c00)     _GpioCtrlRegs

00007f00     1fc (00007f00)     _GpioDataRegs

00008000     200 (00008000)     _uart_phy_ptr
00008000     200 (00008000)     _uarta_in
00008000     200 (00008000)     _uarta_out
00008000     200 (00008000)     _uartd_in
00008000     200 (00008000)     _uartd_out
00008008     200 (00008000)     _dev_uart_array

00008040     201 (00008040)     _uartb

000080c0     203 (000080c0)     _uartc

00008140     205 (00008140)     _uarta

000081c0     207 (000081c0)     _uartd

00008240     209 (00008240)     _uartc_in

00008340     20d (00008340)     _uartb_in

00008440     211 (00008440)     _uartb_out

00008600     218 (00008600)     _uartc_out

00008790     21e (00008780)     _g_pui8IADAudioDescriptor
00008798     21e (00008780)     _g_psAudioSections
000087bb     21e (00008780)     _deviceOpen
000087bc     21e (00008780)     __lock
000087be     21e (00008780)     __unlock

000087fe     21f (000087c0)     _errno

00008800     220 (00008800)     _dev_spi_array
00008800     220 (00008800)     _spia_in
00008800     220 (00008800)     _spia_out
00008800     220 (00008800)     _spib_in
00008800     220 (00008800)     _spib_out
00008806     220 (00008800)     _spi_phy_ptr
0000880c     220 (00008800)     _spi_operation
00008816     220 (00008800)     _spibin

00008840     221 (00008840)     _spiaout
00008860     221 (00008840)     _spibout

00008880     222 (00008880)     _spiain
000088a0     222 (00008880)     _spicout

000088c0     223 (000088c0)     _spicin

00008900     224 (00008900)     _spic_in

00008980     226 (00008980)     _spic_out

00008a00     228 (00008a00)     _dev_ctrl_spib

00008a80     22a (00008a80)     _dev_ctrl_spic

00008b00     22c (00008b00)     _dev_ctrl_spia

00008b80     22e (00008b80)     _spib

00008c00     230 (00008c00)     _spic

00008c80     232 (00008c80)     _spia

00008ce8     233 (00008cc0)     _CpuTimer1
00008cf0     233 (00008cc0)     _CpuTimer2
00008cf8     233 (00008cc0)     _CpuTimer0

00008d00     234 (00008d00)     _bsp_gpio_info

00008fba     23e (00008f80)     _tempSensor_tempOffset
00008fbc     23e (00008f80)     _tempSensor_scaleFactor
00008fbe     23e (00008f80)     _tempSensor_tempSlope

00008ff3     23f (00008fc0)     _optopt
00008ff5     23f (00008fc0)     _opterr
00008ffa     23f (00008fc0)     _optind
00008ffc     23f (00008fc0)     _optarg

00009000     240 (00009000)     _stdio_dev

00009040     241 (00009040)     _std_out

00009200     248 (00009200)     _std_in

000093ba     24e (00009380)     _ulTaskHasFPUContext
000093bc     24e (00009380)     _ulSecureNesting
000093be     24e (00009380)     _ulCriticalNesting

0000974e     25d (00009740)     _g_psCDCSerSections
00009754     25d (00009740)     _g_psCDCCompSerSections
0000975c     25d (00009740)     _g_pui8IADSerDescriptor
00009764     25d (00009740)     _g_pui8CDCSerDescriptor
0000976d     25d (00009740)     _g_pui8CDCSerDeviceDescriptor

00009780     25e (00009780)     _g_ppsDevInfo
00009784     25e (00009780)     _g_psDCDInst

00009800     260 (00009800)     _comtest_err_test

00009840     261 (00009840)     _comtest_bash

00009880     262 (00009880)     _comtest_ctrl

00009a9a     26a (00009a80)     _g_sDFUConfigHeader
00009a9e     26a (00009a80)     _g_psDFUSections
00009aa4     26a (00009a80)     _g_pui8DFUInterface
00009aad     26a (00009a80)     _g_pui8DFUFunctionalDesc
00009ab6     26a (00009a80)     _g_pui8DFUConfigDescriptor

00009ac0     26b (00009ac0)     _spitest_err_test

00009b00     26c (00009b00)     _sh

00009b40     26d (00009b40)     _spitest_ctrl

00009d56     275 (00009d40)     _xQueueRegistry

00009d80     276 (00009d80)     _manual_reinit
00009d81     276 (00009d80)     _argc
00009d82     276 (00009d80)     _argv_buf

00009dc0     277 (00009dc0)     _getoptbuf

00009f64     27d (00009f40)     _g_ppCompConfigDescriptors
00009f78     27d (00009f40)     _bsp_clk_info

00009f90     27e (00009f80)     _pxCurrentTCB

00009ffc     27f (00009fc0)     _g_sAudioConfigSection

0000a000     280 (0000a000)     _dev_dma
0000a006     280 (0000a000)     _dma_phy_ptr
0000a012     280 (0000a000)     _dev_dma_array

0000a040     281 (0000a040)     _dma_ch5

0000a080     282 (0000a080)     _dma_ch6

0000a0c0     283 (0000a0c0)     _dma_ch2

0000a100     284 (0000a100)     _dma_ch1

0000a140     285 (0000a140)     _dma_ch4

0000a180     286 (0000a180)     _dma_ch3

0000a1c0     287 (0000a1c0)     _timer0_ptr
0000a1c2     287 (0000a1c0)     _timer1_ptr
0000a1c4     287 (0000a1c0)     _timer2_ptr
0000a1c6     287 (0000a1c0)     _timer_phy_ptr
0000a1cc     287 (0000a1c0)     _dev_timer_array

0000a200     288 (0000a200)     _timer2

0000a280     28a (0000a280)     _timer0

0000a300     28c (0000a300)     _timer1

0000a35e     28d (0000a340)     _g_sHIDConfigHeader
0000a362     28d (0000a340)     _g_sHIDDescriptorSection
0000a366     28d (0000a340)     _g_psHIDSections
0000a36e     28d (0000a340)     _g_pui8HIDInterface
0000a377     28d (0000a340)     _g_pui8MouseDescriptor

0000a380     28e (0000a380)     _made_crc8_table

0000a3c0     28f (0000a3c0)     _crc8_table

0000a5fc     297 (0000a5c0)     _g_sAudioControlInterfaceSection

0000a600     298 (0000a600)     _SCI
0000a604     298 (0000a600)     _MCBSP
0000a608     298 (0000a600)     _I2C
0000a60c     298 (0000a600)     _SDFM
0000a612     298 (0000a600)     _EQEP
0000a61a     298 (0000a600)     _SPI
0000a622     298 (0000a600)     _ADC
0000a62c     298 (0000a600)     _ECAP

0000a640     299 (0000a640)     _EPWM
0000a65a     299 (0000a640)     _TRIP_SEL
0000a678     299 (0000a640)     ___TI_enable_exit_profile_output
0000a67a     299 (0000a640)     ___TI_cleanup_ptr
0000a67c     299 (0000a640)     ___TI_dtors_ptr

0000a680     29a (0000a680)     _g_psBulkSections
0000a684     29a (0000a680)     _g_pui8BulkDescriptor
0000a68d     29a (0000a680)     _g_pui8BulkDeviceDescriptor
0000a6a0     29a (0000a680)     _g_bUSBTimerInitialized
0000a6a2     29a (0000a680)     _g_ui32CurrentUSBTick
0000a6a4     29a (0000a680)     _g_ui32USBSOFCount
0000a6a6     29a (0000a680)     _g_pfnTickHandlers
0000a6b2     29a (0000a680)     _g_pvTickInstance

0000a6c0     29b (0000a6c0)     _g_pui8HIDDeviceDescriptor
0000a6e1     29b (0000a6c0)     _g_iUSBMode
0000a6e2     29b (0000a6c0)     _g_eOTGModeState
0000a6e6     29b (0000a6c0)     _g_ui32PollRate
0000a6e8     29b (0000a6c0)     _g_ui32WaitTicks

0000ad70     2b5 (0000ad40)     _PieVectTableInit

0000afc3     2bf (0000afc0)     _g_pui8AudioControlInterface

0000b800     2e0 (0000b800)     __stack

0000d000     340 (0000d000)     _ConfigDescAlloc

0000d051     341 (0000d040)     _ConfigDescFree

0000d0be     342 (0000d080)     _USBHCDEventEnable

0000d0d3     343 (0000d0c0)     _USBHCDEventDisable

0000d1a1     346 (0000d180)     _USBHCDPipeAllocSize

0000d397     34e (0000d380)     _USBHCDPipeAlloc
0000d3a6     34e (0000d380)     _USBHCDPipeConfig

0000d476     351 (0000d440)     _USBHCDPipeStatus
0000d47b     351 (0000d440)     _USBHCDPipeWrite

0000d57b     355 (0000d540)     _USBHCDPipeSchedule

0000d622     358 (0000d600)     _USBHCDPipeReadNonBlocking

0000d64d     359 (0000d640)     _USBHCDPipeDataAck
0000d66a     359 (0000d640)     _USBHCDPipeRead

0000d77f     35d (0000d740)     _USBHCDPipeFree

0000d98a     366 (0000d980)     _USBHCDPowerConfigInit
0000d992     366 (0000d980)     _USBHCDPowerConfigGet
0000d999     366 (0000d980)     _USBHCDPowerConfigSet

0000d9c3     367 (0000d9c0)     _USBHCDPowerAutomatic
0000d9ce     367 (0000d9c0)     _USBHCDInit

0000da23     368 (0000da00)     _USBHCDRegisterDrivers
0000da2e     368 (0000da00)     _USBHCDTerm

0000da8e     36a (0000da80)     _USBHCDReset
0000dab4     36a (0000da80)     _USBHCDSuspend
0000dabd     36a (0000da80)     _USBHCDResume

0000db7b     36d (0000db40)     _USBHCDSetAddress

0000dc24     370 (0000dc00)     _USBHCDSetConfig

0000dc48     371 (0000dc40)     _USBHCDSetInterface
0000dc74     371 (0000dc40)     _USBHostCheckPipes

0000dcff     373 (0000dcc0)     _USBHostIntHandlerInternal

0000e075     381 (0000e040)     _USB0HostIntHandler

0000e0f0     383 (0000e0c0)     _InternalUSBHCDSendEvent

0000e19f     386 (0000e180)     _USBHCDMain

0000e361     38d (0000e340)     _USBHCDControlTransfer

0000e3f3     38f (0000e3c0)     _USBHCDHubDeviceConnected

0000e44b     391 (0000e440)     _USBHCDHubDeviceDisconnected

0000e546     395 (0000e540)     _USBHCDDevHubPort
0000e55a     395 (0000e540)     _USBHCDDevAddress
0000e56e     395 (0000e540)     _USBHCDDevClass

0000e593     396 (0000e580)     _USBHCDDevSubClass
0000e5b8     396 (0000e580)     _USBHCDDevProtocol

0000e5dd     397 (0000e5c0)     _xTaskCreateStatic

0000e719     39c (0000e700)     _vTaskDelete

0000e769     39d (0000e740)     _vTaskDelayUntil

0000e7c6     39f (0000e7c0)     _vTaskDelay
0000e7eb     39f (0000e7c0)     _uxTaskPriorityGet

0000e801     3a0 (0000e800)     _uxTaskPriorityGetFromISR
0000e813     3a0 (0000e800)     _vTaskPrioritySet

0000e8b8     3a2 (0000e880)     _vTaskSuspend

0000e94b     3a5 (0000e940)     _vTaskResume

0000e99b     3a6 (0000e980)     _xTaskResumeFromISR

0000e9eb     3a7 (0000e9c0)     _vTaskStartScheduler

0000ea38     3a8 (0000ea00)     _vTaskEndScheduler

0000ea40     3a9 (0000ea40)     _vTaskSuspendAll
0000ea44     3a9 (0000ea40)     _xTaskResumeAll

0000eabe     3aa (0000ea80)     _xTaskGetTickCount

0000eaca     3ab (0000eac0)     _xTaskGetTickCountFromISR
0000ead2     3ab (0000eac0)     _uxTaskGetNumberOfTasks
0000ead6     3ab (0000eac0)     _pcTaskGetName
0000eaee     3ab (0000eac0)     _xTaskIncrementTick

0000eb71     3ad (0000eb40)     _vTaskSwitchContext

0000ebc1     3af (0000ebc0)     _vTaskPlaceOnEventList
0000ebdb     3af (0000ebc0)     _vTaskPlaceOnUnorderedEventList

0000ec0d     3b0 (0000ec00)     _vTaskPlaceOnEventListRestricted
0000ec2c     3b0 (0000ec00)     _xTaskRemoveFromEventList

0000ec81     3b2 (0000ec80)     _vTaskRemoveFromUnorderedEventList

0000ecd9     3b3 (0000ecc0)     _vTaskSetTimeOutState
0000ecf2     3b3 (0000ecc0)     _vTaskInternalSetTimeOutState
0000ecfe     3b3 (0000ecc0)     _xTaskCheckForTimeOut

0000ed42     3b5 (0000ed40)     _vTaskMissedYield
0000ed53     3b5 (0000ed40)     _vTaskSetThreadLocalStoragePointer
0000ed6b     3b5 (0000ed40)     _pvTaskGetThreadLocalStoragePointer

0000edf2     3b7 (0000edc0)     _xTaskGetCurrentTaskHandle
0000edfa     3b7 (0000edc0)     _xTaskGetSchedulerState

0000ee0b     3b8 (0000ee00)     _xTaskPriorityInherit

0000ee8a     3ba (0000ee80)     _xTaskPriorityDisinherit

0000eefc     3bb (0000eec0)     _vTaskPriorityDisinheritAfterTimeout

0000ef8d     3be (0000ef80)     _uxTaskResetEventItemValue
0000efa2     3be (0000ef80)     _pvTaskIncrementMutexHeldCount
0000efac     3be (0000ef80)     _ulTaskNotifyTake

0000efe9     3bf (0000efc0)     _xTaskNotifyWait

0000f035     3c0 (0000f000)     _xTaskGenericNotify

0000f0d0     3c3 (0000f0c0)     _xTaskGenericNotifyFromISR

0000f179     3c5 (0000f140)     _vTaskNotifyGiveFromISR

0000f1ef     3c7 (0000f1c0)     _xTaskNotifyStateClear

0000f24f     3c9 (0000f240)     __system_post_cinit

0000fd33     3f4 (0000fd00)     ___TI_printfi

0000ffd4     3ff (0000ffc0)     _spi_oper_chk
0000ffee     3ff (0000ffc0)     _spi_node_fifo_init

0001000b     400 (00010000)     _spi_node_fifo_push
00010024     400 (00010000)     _spi_node_fifo_pop
0001003e     400 (00010000)     _spi_node_select

0001007d     401 (00010040)     _spi_dma_init

000100b7     402 (00010080)     _spi_default

000100d8     403 (000100c0)     _spi_buf_reset

00010104     404 (00010100)     _spi_reset
00010110     404 (00010100)     _spi_wait2send
0001013c     404 (00010100)     _spi_get_sendbyte

00010197     406 (00010180)     _spi_dma_getdev

000101c0     407 (000101c0)     _spi_dma_trig

00010204     408 (00010200)     _spi_dma_send

0001028f     40a (00010280)     _spi_dma_receive

0001031b     40c (00010300)     _spi_dma_handler_send
00010327     40c (00010300)     _spi_trig_send

00010396     40e (00010380)     _spi_dma_handler_receive
000103a2     40e (00010380)     _spi_write

0001041d     410 (00010400)     _spi_read

0001048a     412 (00010480)     _spi_listen

000104c0     413 (000104c0)     _spi_flush
000104ca     413 (000104c0)     _spi_vioctl

00010642     419 (00010640)     _spi_ioctl
00010650     419 (00010640)     _dev_spi_init

00010713     41c (00010700)     _USBDCDDeviceInfoInit
00010725     41c (00010700)     _USBDCDInit

000107a7     41e (00010780)     _USBDCDTerm

000107dc     41f (000107c0)     _USBDCDRequestDataEP0
000107ea     41f (000107c0)     _USBDCDSendDataEP0
000107f9     41f (000107c0)     _USBDCDSetDefaultConfiguration

00010801     420 (00010800)     _USBDCDStallEP0
00010812     420 (00010800)     _USBDCDPowerStatusSet
0001081f     420 (00010800)     _USBDCDRemoteWakeupRequest
00010835     420 (00010800)     _USBDeviceResumeTickHandler

000108a2     422 (00010880)     _USBDeviceEnumHandler

00010962     425 (00010940)     _USBDeviceEnumResetHandler

00010ec7     43b (00010ec0)     _USBDeviceIntHandlerInternal

00010f5f     43d (00010f40)     _xQueueGenericReset

00010fc3     43f (00010fc0)     _xQueueGenericCreateStatic

00011058     441 (00011040)     _xQueueCreateMutexStatic
0001106b     441 (00011040)     _xQueueGenericSend

00011148     445 (00011140)     _xQueueGenericSendFromISR

000111c4     447 (000111c0)     _xQueueGiveFromISR

00011235     448 (00011200)     _xQueueReceive

000112f9     44b (000112c0)     _xQueueSemaphoreTake

000113e7     44f (000113c0)     _xQueuePeek

000114aa     452 (00011480)     _xQueueReceiveFromISR

0001150b     454 (00011500)     _xQueuePeekFromISR

00011556     455 (00011540)     _uxQueueMessagesWaiting
0001156d     455 (00011540)     _uxQueueSpacesAvailable

0001158b     456 (00011580)     _uxQueueMessagesWaitingFromISR
0001159d     456 (00011580)     _vQueueDelete

000116a4     45a (00011680)     _xQueueIsQueueEmptyFromISR

000116d3     45b (000116c0)     _xQueueIsQueueFullFromISR
000116f0     45b (000116c0)     _vQueueAddToRegistry

00011717     45c (00011700)     _pcQueueGetName
00011739     45c (00011700)     _vQueueUnregisterQueue

0001175f     45d (00011740)     _vQueueWaitForMessageRestricted

000117d3     45f (000117c0)     _USBHostSuspend
000117dd     45f (000117c0)     _USBHostReset
000117f2     45f (000117c0)     _USBHostResume

00011807     460 (00011800)     _USBHostSpeedGet
0001181e     460 (00011800)     _USBIntDisableControl

00011841     461 (00011840)     _USBIntEnableControl
00011861     461 (00011840)     _USBIntStatus

000118a4     462 (00011880)     _USBIntStatusControl

000118c9     463 (000118c0)     _USBIntDisableEndpoint
000118db     463 (000118c0)     _USBIntEnableEndpoint
000118eb     463 (000118c0)     _USBIntStatusEndpoint
000118fe     463 (000118c0)     _USBIntRegister

0001190c     464 (00011900)     _USBIntUnregister
00011918     464 (00011900)     _USBEndpointStatus
0001192d     464 (00011900)     _USBHostEndpointStatusClear

00011953     465 (00011940)     _USBDevEndpointStatusClear

00011993     466 (00011980)     _USBHostEndpointDataToggle

000119e4     467 (000119c0)     _USBEndpointDataToggleClear
000119fc     467 (000119c0)     _USBDevEndpointStall

00011a21     468 (00011a00)     _USBDevEndpointStallClear

00011a59     469 (00011a40)     _USBDevConnect
00011a63     469 (00011a40)     _USBDevDisconnect
00011a6e     469 (00011a40)     _USBDevAddrSet
00011a75     469 (00011a40)     _USBDevAddrGet
00011a7d     469 (00011a40)     _USBHostEndpointConfig

00011b1d     46c (00011b00)     _USBDevEndpointConfigSet

00011b7e     46d (00011b40)     _USBDevEndpointConfigGet

00011be1     46f (00011bc0)     _USBFIFOConfigSet

00011c1f     470 (00011c00)     _USBFIFOConfigGet

00011c5f     471 (00011c40)     _USBEndpointDMAConfigSet

00011ca1     472 (00011c80)     _USBEndpointDMAEnable
00011cb9     472 (00011c80)     _USBEndpointDMADisable

00011cd3     473 (00011cc0)     _USBEndpointDataAvail
00011cef     473 (00011cc0)     _USBEndpointDataGet

00011d2f     474 (00011d00)     _USBDevEndpointDataAck

00011d4f     475 (00011d40)     _USBHostEndpointDataAck
00011d68     475 (00011d40)     _USBEndpointDataPut

00011d92     476 (00011d80)     _USBEndpointDataSend

00011dc1     477 (00011dc0)     _USBFIFOFlush
00011dfb     477 (00011dc0)     _USBHostRequestIN

00011e0f     478 (00011e00)     _USBHostRequestINClear
00011e25     478 (00011e00)     _USBHostRequestStatus
00011e30     478 (00011e00)     _USBHostAddrSet

00011e48     479 (00011e40)     _USBHostAddrGet
00011e62     479 (00011e40)     _USBHostHubAddrSet

00011e90     47a (00011e80)     _USBHostHubAddrGet
00011eaa     47a (00011e80)     _USBHostPwrConfig

00011ec6     47b (00011ec0)     _USBHostPwrFaultEnable
00011ed1     47b (00011ec0)     _USBHostPwrFaultDisable
00011edc     47b (00011ec0)     _USBHostPwrEnable
00011ee7     47b (00011ec0)     _USBHostPwrDisable
00011ef2     47b (00011ec0)     _USBFrameNumberGet
00011efa     47b (00011ec0)     _USBOTGSessionRequest

00011f0f     47c (00011f00)     _USBFIFOAddrGet
00011f18     47c (00011f00)     _USBModeGet
00011f23     47c (00011f00)     _USBEndpointDMAChannel

00011f4d     47d (00011f40)     _USBHostMode
00011f58     47d (00011f40)     _USBDevMode
00011f63     47d (00011f40)     _USBOTGMode
00011f6e     47d (00011f40)     _USBPHYPowerOff
00011f78     47d (00011f40)     _USBPHYPowerOn

00011f83     47e (00011f80)     _USBEndpointPacketCountSet
00011f92     47e (00011f80)     _USBNumEndpointsGet

00012376     48d (00012340)     ___TI_scanfi

00012604     498 (00012600)     _TIMER1_ISR
0001260e     498 (00012600)     _TIMER2_ISR
00012618     498 (00012600)     _DATALOG_ISR
00012622     498 (00012600)     _RTOS_ISR
0001262c     498 (00012600)     _EMU_ISR
00012636     498 (00012600)     _NMI_ISR

00012640     499 (00012640)     _ILLEGAL_ISR
0001264a     499 (00012640)     _USER1_ISR
00012654     499 (00012640)     _USER2_ISR
0001265e     499 (00012640)     _USER3_ISR
00012668     499 (00012640)     _USER4_ISR
00012672     499 (00012640)     _USER5_ISR
0001267c     499 (00012640)     _USER6_ISR

00012686     49a (00012680)     _USER7_ISR
00012690     49a (00012680)     _USER8_ISR
0001269a     49a (00012680)     _USER9_ISR
000126a4     49a (00012680)     _USER10_ISR
000126ae     49a (00012680)     _USER11_ISR
000126b8     49a (00012680)     _USER12_ISR

000126c2     49b (000126c0)     _ADCA1_ISR
000126cc     49b (000126c0)     _ADCB1_ISR
000126d6     49b (000126c0)     _ADCC1_ISR
000126e0     49b (000126c0)     _XINT1_ISR
000126ea     49b (000126c0)     _XINT2_ISR
000126f4     49b (000126c0)     _ADCD1_ISR
000126fe     49b (000126c0)     _TIMER0_ISR

00012708     49c (00012700)     _WAKE_ISR
00012712     49c (00012700)     _EPWM1_TZ_ISR
0001271c     49c (00012700)     _EPWM2_TZ_ISR
00012726     49c (00012700)     _EPWM3_TZ_ISR
00012730     49c (00012700)     _EPWM4_TZ_ISR
0001273a     49c (00012700)     _EPWM5_TZ_ISR

00012744     49d (00012740)     _EPWM6_TZ_ISR
0001274e     49d (00012740)     _EPWM7_TZ_ISR
00012758     49d (00012740)     _EPWM8_TZ_ISR
00012762     49d (00012740)     _EPWM1_ISR
0001276c     49d (00012740)     _EPWM2_ISR
00012776     49d (00012740)     _EPWM3_ISR

00012780     49e (00012780)     _EPWM4_ISR
0001278a     49e (00012780)     _EPWM5_ISR
00012794     49e (00012780)     _EPWM6_ISR
0001279e     49e (00012780)     _EPWM7_ISR
000127a8     49e (00012780)     _EPWM8_ISR
000127b2     49e (00012780)     _ECAP1_ISR
000127bc     49e (00012780)     _ECAP2_ISR

000127c6     49f (000127c0)     _ECAP3_ISR
000127d0     49f (000127c0)     _ECAP4_ISR
000127da     49f (000127c0)     _ECAP5_ISR
000127e4     49f (000127c0)     _ECAP6_ISR
000127ee     49f (000127c0)     _EQEP1_ISR
000127f8     49f (000127c0)     _EQEP2_ISR

00012802     4a0 (00012800)     _EQEP3_ISR
0001280c     4a0 (00012800)     _SPIA_RX_ISR
00012816     4a0 (00012800)     _SPIA_TX_ISR
00012820     4a0 (00012800)     _SPIB_RX_ISR
0001282a     4a0 (00012800)     _SPIB_TX_ISR
00012834     4a0 (00012800)     _MCBSPA_RX_ISR
0001283e     4a0 (00012800)     _MCBSPA_TX_ISR

00012848     4a1 (00012840)     _MCBSPB_RX_ISR
00012852     4a1 (00012840)     _MCBSPB_TX_ISR
0001285c     4a1 (00012840)     _DMA_CH1_ISR
00012866     4a1 (00012840)     _DMA_CH2_ISR
00012870     4a1 (00012840)     _DMA_CH3_ISR
0001287a     4a1 (00012840)     _DMA_CH4_ISR

00012884     4a2 (00012880)     _DMA_CH5_ISR
0001288e     4a2 (00012880)     _DMA_CH6_ISR
00012898     4a2 (00012880)     _I2CA_ISR
000128a2     4a2 (00012880)     _I2CA_FIFO_ISR
000128ac     4a2 (00012880)     _I2CB_ISR
000128b6     4a2 (00012880)     _I2CB_FIFO_ISR

000128c0     4a3 (000128c0)     _SCIC_RX_ISR
000128ca     4a3 (000128c0)     _SCIC_TX_ISR
000128d4     4a3 (000128c0)     _SCID_RX_ISR
000128de     4a3 (000128c0)     _SCID_TX_ISR
000128e8     4a3 (000128c0)     _SCIA_RX_ISR
000128f2     4a3 (000128c0)     _SCIA_TX_ISR
000128fc     4a3 (000128c0)     _SCIB_RX_ISR

00012906     4a4 (00012900)     _SCIB_TX_ISR
00012910     4a4 (00012900)     _CANA0_ISR
0001291a     4a4 (00012900)     _CANA1_ISR
00012924     4a4 (00012900)     _CANB0_ISR
0001292e     4a4 (00012900)     _CANB1_ISR
00012938     4a4 (00012900)     _ADCA_EVT_ISR

00012942     4a5 (00012940)     _ADCA2_ISR
0001294c     4a5 (00012940)     _ADCA3_ISR
00012956     4a5 (00012940)     _ADCA4_ISR
00012960     4a5 (00012940)     _ADCB_EVT_ISR
0001296a     4a5 (00012940)     _ADCB2_ISR
00012974     4a5 (00012940)     _ADCB3_ISR
0001297e     4a5 (00012940)     _ADCB4_ISR

00012988     4a6 (00012980)     _CLA1_1_ISR
00012992     4a6 (00012980)     _CLA1_2_ISR
0001299c     4a6 (00012980)     _CLA1_3_ISR
000129a6     4a6 (00012980)     _CLA1_4_ISR
000129b0     4a6 (00012980)     _CLA1_5_ISR
000129ba     4a6 (00012980)     _CLA1_6_ISR

000129c4     4a7 (000129c0)     _CLA1_7_ISR
000129ce     4a7 (000129c0)     _CLA1_8_ISR
000129d8     4a7 (000129c0)     _XINT3_ISR
000129e2     4a7 (000129c0)     _XINT4_ISR
000129ec     4a7 (000129c0)     _XINT5_ISR
000129f6     4a7 (000129c0)     _VCU_ISR

00012a00     4a8 (00012a00)     _FPU_OVERFLOW_ISR
00012a0a     4a8 (00012a00)     _FPU_UNDERFLOW_ISR
00012a14     4a8 (00012a00)     _IPC0_ISR
00012a1e     4a8 (00012a00)     _IPC1_ISR
00012a28     4a8 (00012a00)     _IPC2_ISR
00012a32     4a8 (00012a00)     _IPC3_ISR
00012a3c     4a8 (00012a00)     _EPWM9_TZ_ISR

00012a46     4a9 (00012a40)     _EPWM10_TZ_ISR
00012a50     4a9 (00012a40)     _EPWM11_TZ_ISR
00012a5a     4a9 (00012a40)     _EPWM12_TZ_ISR
00012a64     4a9 (00012a40)     _EPWM9_ISR
00012a6e     4a9 (00012a40)     _EPWM10_ISR
00012a78     4a9 (00012a40)     _EPWM11_ISR

00012a82     4aa (00012a80)     _EPWM12_ISR
00012a8c     4aa (00012a80)     _SD1_ISR
00012a96     4aa (00012a80)     _SD2_ISR
00012aa0     4aa (00012a80)     _SPIC_RX_ISR
00012aaa     4aa (00012a80)     _SPIC_TX_ISR
00012ab4     4aa (00012a80)     _UPPA_ISR
00012abe     4aa (00012a80)     _USBA_ISR

00012ac8     4ab (00012ac0)     _ADCC_EVT_ISR
00012ad2     4ab (00012ac0)     _ADCC2_ISR
00012adc     4ab (00012ac0)     _ADCC3_ISR
00012ae6     4ab (00012ac0)     _ADCC4_ISR
00012af0     4ab (00012ac0)     _ADCD_EVT_ISR
00012afa     4ab (00012ac0)     _ADCD2_ISR

00012b04     4ac (00012b00)     _ADCD3_ISR
00012b0e     4ac (00012b00)     _ADCD4_ISR
00012b18     4ac (00012b00)     _EMIF_ERROR_ISR
00012b22     4ac (00012b00)     _RAM_CORRECTABLE_ERROR_ISR
00012b2c     4ac (00012b00)     _FLASH_CORRECTABLE_ERROR_ISR
00012b36     4ac (00012b00)     _RAM_ACCESS_VIOLATION_ISR

00012b40     4ad (00012b40)     _SYS_PLL_SLIP_ISR
00012b4a     4ad (00012b40)     _AUX_PLL_SLIP_ISR
00012b54     4ad (00012b40)     _CLA_OVERFLOW_ISR
00012b5e     4ad (00012b40)     _CLA_UNDERFLOW_ISR
00012b68     4ad (00012b40)     _PIE_RESERVED_ISR
00012b72     4ad (00012b40)     _EMPTY_ISR
00012b7f     4ad (00012b40)     _NOTUSED_ISR

00012bc0     4af (00012bc0)     _feed_rtc

00012c1a     4b0 (00012c00)     _feed

00012c7a     4b1 (00012c40)     _settimer

00012d35     4b4 (00012d00)     _deltimer

00012d54     4b5 (00012d40)     _runtimer

00012d88     4b6 (00012d80)     _stoptimer
00012dbc     4b6 (00012d80)     _resettimer

00012df8     4b7 (00012dc0)     _readtimer

00012e77     4b9 (00012e40)     _readrtc

00012e9c     4ba (00012e80)     _configtimer

00012f05     4bc (00012f00)     _help
00012f0a     4bc (00012f00)     _dev_timer_init

00013263     4c9 (00013240)     _USBHHubMain

00013350     4cd (00013340)     _USBHHubEnumerationComplete
00013361     4cd (00013340)     _USBHHubEnumerationError
00013372     4cd (00013340)     _USBHHubOpen

00013380     4ce (00013380)     _USBHHubClose
00013389     4ce (00013380)     _USBHHubInit
00013396     4ce (00013380)     _xTimerCreateTimerTask

000133cf     4cf (000133c0)     _xTimerCreateStatic

00013432     4d0 (00013400)     _xTimerGenericCommand

00013477     4d1 (00013440)     _xTimerGetTimerDaemonTaskHandle

0001348a     4d2 (00013480)     _xTimerGetPeriod
0001349d     4d2 (00013480)     _xTimerGetExpiryTime
000134af     4d2 (00013480)     _pcTimerGetName

000136bd     4da (00013680)     _xTimerIsTimerActive

000136e2     4db (000136c0)     _pvTimerGetTimerID
000136fb     4db (000136c0)     _vTimerSetTimerID

00013879     4e1 (00013840)     _uart_trig_send

0001389c     4e2 (00013880)     _uart_hook_485send_enter
000138ae     4e2 (00013880)     _uart_hook_485send_quit

000138c0     4e3 (000138c0)     _uart_write

00013906     4e4 (00013900)     _uart_read

0001394b     4e5 (00013940)     _uart_listen
00013971     4e5 (00013940)     _uart_flush

00013992     4e6 (00013980)     _dev_uart_init

00013a5e     4e9 (00013a40)     _InitSysCtrl

00013a8f     4ea (00013a80)     _InitPeripheralClocks

00013b13     4ec (00013b00)     _DisablePeripheralClocks
00013b2b     4ec (00013b00)     _SeizeFlashPump
00013b3a     4ec (00013b00)     _ReleaseFlashPump

00013b44     4ed (00013b40)     _ServiceDog
00013b52     4ed (00013b40)     _DisableDog
00013b60     4ed (00013b40)     _InitSysPll

00013c26     4f0 (00013c00)     _InitAuxPll

00013cee     4f3 (00013cc0)     _CsmUnlock

00013d0f     4f4 (00013d00)     _SysIntOsc1Sel
00013d19     4f4 (00013d00)     _SysIntOsc2Sel
00013d23     4f4 (00013d00)     _SysXtalOscSel
00013d2f     4f4 (00013d00)     _AuxIntOsc2Sel
00013d39     4f4 (00013d00)     _AuxXtalOscSel

00013d45     4f5 (00013d40)     _AuxAuxClkSel
00013d4f     4f5 (00013d40)     _IDLE
00013d58     4f5 (00013d40)     _STANDBY
00013d63     4f5 (00013d40)     _HALT
00013d7c     4f5 (00013d40)     _HIB

00013da2     4f6 (00013d80)     _dmach_default_cfg
00013dbe     4f6 (00013d80)     _dma_get_idle_ch

00013de0     4f7 (00013dc0)     _dma_get_idle_hch
00013dee     4f7 (00013dc0)     _dma_free_ch

00013e03     4f8 (00013e00)     _dma_dat_cpy_ch

00013e69     4f9 (00013e40)     _dma_dev_bind_ch

00013edd     4fb (00013ec0)     _dma_ch_isr_handler

00013f0e     4fc (00013f00)     _dma_memcpy
00013f3a     4fc (00013f00)     _dma_memcpy_h

00013f5d     4fd (00013f40)     _dma_dev_cpy

00013f92     4fe (00013f80)     _dma_dev_cpy_h
00013fbe     4fe (00013f80)     _dma_dev_free

00013fc4     4ff (00013fc0)     _dev_dma_init

000140d9     503 (000140c0)     _USBDeviceConfig

00014276     509 (00014240)     _USBDeviceConfigAlternate

000142e6     50b (000142c0)     _spitest_chkframe
000142fc     50b (000142c0)     _spitest_tick

00014316     50c (00014300)     _spitest_rcvdata
0001433a     50c (00014300)     _spitest_readcmd

00014407     510 (00014400)     _spitest_fsm

000144e8     513 (000144c0)     _spitest_init

0001451c     514 (00014500)     _spitest_main

00014575     515 (00014540)     _USBStackModeSet

0001458b     516 (00014580)     _USB0DualModeIntHandler

000145c5     517 (000145c0)     _USBDualModeInit

00014608     518 (00014600)     _USBDualModeTerm
00014621     518 (00014600)     _USBOTGModeTerm
0001463d     518 (00014600)     _USBOTGModeInit

000146b1     51a (00014680)     _USBOTGPollRate
000146b9     51a (00014680)     _USB0OTGModeIntHandler

00014738     51c (00014700)     _OTGDeviceDisconnect

00014746     51d (00014740)     _USBOTGMain

00014794     51e (00014780)     _InitGpio

000147d4     51f (000147c0)     _GPIO_SetupPinMux

00014860     521 (00014840)     _GPIO_SetupPinOptions

000148f4     523 (000148c0)     _GPIO_SetupLock

0001491d     524 (00014900)     _GPIO_SetupXINT1Gpio
00014927     524 (00014900)     _GPIO_SetupXINT2Gpio
00014931     524 (00014900)     _GPIO_SetupXINT3Gpio
0001493b     524 (00014900)     _GPIO_SetupXINT4Gpio

00014945     525 (00014940)     _GPIO_SetupXINT5Gpio
0001494f     525 (00014940)     _GPIO_EnableUnbondedIOPullupsFor176Pin
00014968     525 (00014940)     _GPIO_EnableUnbondedIOPullupsFor100Pin

0001498d     526 (00014980)     _GPIO_EnableUnbondedIOPullups
000149a3     526 (00014980)     _GPIO_ReadPin
000149ba     526 (00014980)     _GPIO_WritePin

000149d8     527 (000149c0)     _SysCtlPeripheralPresent
000149f7     527 (000149c0)     _SysCtlPeripheralReady

00014a31     528 (00014a00)     _SysCtlPeripheralReset

00014a5d     529 (00014a40)     _SysCtlPeripheralEnable
00014a77     529 (00014a40)     _SysCtlPeripheralDisable

00014a92     52a (00014a80)     _SysCtlReset
00014a9c     52a (00014a80)     _SysCtlClockGet

00014ae8     52b (00014ac0)     _SysCtlLowSpeedClockGet
00014aff     52b (00014ac0)     _SysCtlClockSet

00014b9b     52e (00014b80)     _SysCtlAuxClockSet

00014c19     530 (00014c00)     _SysCtlUSBPLLEnable
00014c1a     530 (00014c00)     _SysCtlUSBPLLDisable
00014c1b     530 (00014c00)     _bsp_uart_clk_init

00014c7f     531 (00014c40)     _bsp_uart_init

00014cae     532 (00014c80)     _bsp_uart_set

00014da5     536 (00014d80)     _bsp_uart_reset

00014e0e     538 (00014e00)     _IntMasterEnable
00014e16     538 (00014e00)     _IntMasterDisable
00014e1e     538 (00014e00)     _IntRegister
00014e31     538 (00014e00)     _IntUnregister

00014e46     539 (00014e40)     _IntEnable

00014ed9     53b (00014ec0)     _IntDisable

00014f59     53d (00014f40)     _IntIFRClear

00014fd8     53f (00014fc0)     _io_get_class

00015000     540 (00015000)     _dev_get_type
0001501c     540 (00015000)     _write

00015094     542 (00015080)     _listen

000150cf     543 (000150c0)     _read

0001514d     545 (00015140)     _ioflush
0001516b     545 (00015140)     _ioctl

0001518b     546 (00015180)     _bsp_spi_clk_init

000151d5     547 (000151c0)     _bsp_spi_set_baud

0001527a     549 (00015240)     _bsp_spi_reset

000152dd     54b (000152c0)     _bsp_spi_init

0001530e     54c (00015300)     _pxPortInitialiseStack

0001543a     550 (00015400)     _xPortStartScheduler

00015444     551 (00015440)     _vPortEndScheduler
00015456     551 (00015440)     _vPortEnterCritical
0001545e     551 (00015440)     _vPortExitCritical
0001546a     551 (00015440)     _vPortEnterCriticalFromISR
0001546e     551 (00015440)     _vPortTaskUsesFPU
0001547c     551 (00015440)     _vAssertCalled

00015481     552 (00015480)     _vApplicationGetIdleTaskMemory
00015486     552 (00015480)     _vApplicationGetTimerTaskMemory
0001548b     552 (00015480)     _vApplicationStackOverflowHook
00015490     552 (00015480)     _strtold

00015658     559 (00015640)     _getopt

0001577c     55d (00015740)     _bsp_dma_clk_init

000157f2     55f (000157c0)     _bsp_DMACH_TrigSrcSel

0001585f     561 (00015840)     _bsp_DMACH_ModeConfig
0001586c     561 (00015840)     _bsp_DMACH_ISRConfig
0001587f     561 (00015840)     _bsp_DMACH_AddrConfig

0001589b     562 (00015880)     _bsp_DMACH_BurstConfig
000158ac     562 (00015880)     _bsp_DMACH_TransferConfig

000158c1     563 (000158c0)     _bsp_DMACH_WrapConfig
000158df     563 (000158c0)     _bsp_DMACH_Start
000158e8     563 (000158c0)     _bsp_DMACH_Init
000158ee     563 (000158c0)     _bsp_clk_cal

0001598d     566 (00015980)     _bsp_sys_clk_init

000159c2     567 (000159c0)     _bsp_aux_clk_init
000159f6     567 (000159c0)     _bsp_pclk_init

00015a33     568 (00015a00)     _bsp_clk_init

00015a4b     569 (00015a40)     _bsp_clk_get_sysclk
00015a50     569 (00015a40)     _bsp_clk_get_auxclk
00015a55     569 (00015a40)     _bsp_clk_get_lspclk
00015a5a     569 (00015a40)     _bsp_clk_get_epwmclk
00015a5f     569 (00015a40)     _strtoll

00015c2c     570 (00015c00)     _USBDCDConfigDescGetSize

00015c45     571 (00015c40)     _USBDCDConfigDescGetNum
00015c6a     571 (00015c40)     _USBDCDConfigDescGet

00015cae     572 (00015c80)     _USBDCDConfigGetNumAlternateInterfaces

00015cd3     573 (00015cc0)     _USBDCDConfigGetInterface
00015cec     573 (00015cc0)     _USBDCDConfigGetInterfaceEndpoint

00015d1d     574 (00015d00)     _dma_ch1_isr_handler

00015d4f     575 (00015d40)     _dma_ch2_isr_handler

00015d81     576 (00015d80)     _dma_ch3_isr_handler
00015db3     576 (00015d80)     _dma_ch4_isr_handler

00015de5     577 (00015dc0)     _dma_ch5_isr_handler

00015e17     578 (00015e00)     _dma_ch6_isr_handler

00015e49     579 (00015e40)     _strtoull

00015f6e     57d (00015f40)     _strtod
00015f6e     57d (00015f40)     _strtof

0001608b     582 (00016080)     LL$$DIV

000160c7     583 (000160c0)     LL$$MOD

00016101     584 (00016100)     ULL$$DIV
00016130     584 (00016100)     ULL$$MOD

00016192     586 (00016180)     _uartb_rx_isr_handler

000161c9     587 (000161c0)     _uartb_tx_isr_handler

00016209     588 (00016200)     _uartc_rx_isr_handler

00016240     589 (00016240)     _uartc_tx_isr_handler

00016283     58a (00016280)     _bsp_timer_clk_init

000162c6     58b (000162c0)     _bsp_timer_preinit
000162d3     58b (000162c0)     _bsp_timer_reset
000162ed     58b (000162c0)     _bsp_timer_tim_set

00016327     58c (00016300)     _bsp_timer_ctr_set

00016354     58d (00016340)     _bsp_timer_init
00016368     58d (00016340)     _strtol

000164bf     592 (00016480)     _USBLibDMAInit

0001651a     594 (00016500)     _USBDescGetNum

00016540     595 (00016540)     _USBDescGet
0001656b     595 (00016540)     _USBDescGetNumAlternateInterfaces

000165b9     596 (00016580)     _USBDescGetInterface

000165d3     597 (000165c0)     _USBDescGetInterfaceEndpoint
000165e5     597 (000165c0)     _flush
000165eb     597 (000165c0)     _scan

00016639     598 (00016600)     _vfprint

0001666d     599 (00016640)     _fprint
0001667f     599 (00016640)     _print

0001668d     59a (00016680)     _getbyte
000166a2     59a (00016680)     _ldexpl
000166a2     59a (00016680)     _scalbnl

0001675e     59d (00016740)     _getoptstrwrite

000167fa     59f (000167c0)     _getoptdebug

0001680b     5a0 (00016800)     _getoptstream
00016817     5a0 (00016800)     _strtoul

000168ca     5a3 (000168c0)     FD$$ADD

00016966     5a5 (00016940)     _vListInitialise
0001697d     5a5 (00016940)     _vListInitialiseItem

00016986     5a6 (00016980)     _vListInsertEnd
000169a1     5a6 (00016980)     _vListInsert

000169d5     5a7 (000169c0)     _uxListRemove
000169f9     5a7 (000169c0)     _f28x_USB0DeviceIntHandler

00016a2a     5a8 (00016a00)     _f28x_USB0HostIntHandler

00016a5b     5a9 (00016a40)     _f28x_USB0DualModeIntHandler

00016a8c     5aa (00016a80)     _timer0_isr_handler
00016abe     5aa (00016a80)     _timer1_isr_handler

00016aec     5ab (00016ac0)     _timer2_isr_handler

00016b1a     5ac (00016b00)     FD$$DIV

00016ba5     5ae (00016b80)     FS$$DIV

00016c2d     5b0 (00016c00)     FD$$MPY

00016cb0     5b2 (00016c80)     _InternalUSBTickInit

00016cd5     5b3 (00016cc0)     _InternalUSBTickReset
00016cd9     5b3 (00016cc0)     _InternalUSBRegisterTickHandler

00016d07     5b4 (00016d00)     _InternalUSBStartOfFrameTick
00016d32     5b4 (00016d00)     _spic_rx_isr_handler

00016d69     5b5 (00016d40)     _spic_tx_isr_handler

00016da9     5b6 (00016d80)     _bsp_gpio_init

00016e06     5b8 (00016e00)     _bsp_gpio_set
00016e0d     5b8 (00016e00)     _bsp_gpio_read
00016e13     5b8 (00016e00)     _bsp_gpio_toggle
00016e1f     5b8 (00016e00)     _vsscanf
00016e2f     5b8 (00016e00)     _sscanf

00016e8c     5ba (00016e80)     _frexpl

00016ee6     5bb (00016ec0)     _vsnprintf

00016f3d     5bc (00016f00)     _c_int00

00016f93     5be (00016f80)     _init_crc8

00016fc2     5bf (00016fc0)     _crc8
00016fe3     5bf (00016fc0)     _atoi

00017014     5c0 (00017000)     _sys_tick_init
0001702c     5c0 (00017000)     _sys_tick

00017045     5c1 (00017040)     _ltoa
00017073     5c1 (00017040)     FD$$CMP

0001709d     5c2 (00017080)     L$$DIV
000170ac     5c2 (00017080)     L$$MOD
000170ba     5c2 (00017080)     UL$$DIV

000170c1     5c3 (000170c0)     UL$$MOD
000170c7     5c3 (000170c0)     C$$EXIT
000170c7     5c3 (000170c0)     _abort
000170c9     5c3 (000170c0)     _exit
000170f0     5c3 (000170c0)     _InitPieCtrl

0001710f     5c4 (00017100)     _EnableInterrupts
00017118     5c4 (00017100)     _InitPieVectTable
0001713e     5c4 (00017100)     FS$$TOULL

00017163     5c5 (00017140)     _copy_in

00017187     5c6 (00017180)     _copysignl
000171ab     5c6 (00017180)     I$$DIV
000171bc     5c6 (00017180)     I$$MOD

000171cd     5c7 (000171c0)     FD$$TOI
000171ee     5c7 (000171c0)     FD$$TOL

0001720d     5c8 (00017200)     LL$$CMP
0001721f     5c8 (00017200)     ULL$$CMP
0001722b     5c8 (00017200)     _memcpy

00017249     5c9 (00017240)     I$$TOFD
00017266     5c9 (00017240)     FS$$TOFD

00017282     5ca (00017280)     L$$TOFD
0001729e     5ca (00017280)     _memmove
000172b9     5ca (00017280)     __args_main

000172d2     5cb (000172c0)     LL$$AND
000172da     5cb (000172c0)     LL$$OR
000172e2     5cb (000172c0)     LL$$XOR
000172ea     5cb (000172c0)     _strncmp

00017302     5cc (00017300)     _bsp_reset
00017312     5cc (00017300)     _bsp_init
00017319     5cc (00017300)     UL$$TOFD
0001732f     5cc (00017300)     LL$$MPY

00017343     5cd (00017340)     _USB0DeviceIntHandler
00017355     5cd (00017340)     ULL$$TOFS
00017366     5cd (00017340)     _sys_reset
00017368     5cd (00017340)     _sys_init
00017373     5cd (00017340)     _sys_schd
00017376     5cd (00017340)     _main

00017385     5ce (00017380)     _IntDefaultHandler
00017394     5ce (00017380)     FD$$SUB
000173a2     5ce (00017380)     _memccpy
000173af     5ce (00017380)     _memset
000173bb     5ce (00017380)     _strchr

000173c7     5cf (000173c0)     _strrchr
000173d2     5cf (000173c0)     _strcmp
000173dc     5cf (000173c0)     __register_unlock
000173e0     5cf (000173c0)     __register_lock
000173e4     5cf (000173c0)     __nop
000173e5     5cf (000173c0)     FD$$NEG
000173ee     5cf (000173c0)     _strlen
000173f6     5cf (000173c0)     _root_init
000173fa     5cf (000173c0)     _root_main
000173fd     5cf (000173c0)     _dev_init

00017402     5d0 (00017400)     _strcpy
00017407     5d0 (00017400)     _sys_fault
0001740b     5d0 (00017400)     _SetDBGIER
00017411     5d0 (00017400)     __system_pre_init

00018106     604 (00018100)     __ctypes_

00018512     614 (00018500)     _g_pui8AudioStreamInterface

0001860e     618 (00018600)     _g_pui8CDCSerCommInterface

00018684     61a (00018680)     _g_pui8BulkInterface
0001869b     61a (00018680)     _g_pui8CDCSerDataInterface

0001870e     61c (00018700)     _g_pui8HIDInEndpoint
00018728     61c (00018700)     _g_sAudioStreamInterfaceSection
0001872c     61c (00018700)     _g_sBulkConfigSection
00018730     61c (00018700)     _g_sBulkInterfaceSection
00018734     61c (00018700)     _g_sCDCSerCommInterfaceSection
00018738     61c (00018700)     _g_sCDCSerConfigSection
0001873c     61c (00018700)     _g_sCDCSerDataInterfaceSection

00018740     61d (00018740)     _g_sDFUConfigSection
00018744     61d (00018740)     _g_sDFUFunctionalDescSection
00018748     61d (00018740)     _g_sDFUInterfaceSection
00018750     61d (00018740)     _g_sHIDConfigSection
00018758     61d (00018740)     _g_sHIDInEndpointSection
00018760     61d (00018740)     _g_sHIDInterfaceSection
00018768     61d (00018740)     _g_sIADAudioConfigSection
0001876c     61d (00018740)     _g_sIADSerConfigSection

0003f800     fe0 (0003f800)     _g_asIPCCPU2toCPU1Buffers

0003f880     fe2 (0003f880)     _g_usGetWriteIndexes
0003f884     fe2 (0003f880)     _g_usPutReadIndexes

0003fc00     ff0 (0003fc00)     _g_asIPCCPU1toCPU2Buffers

0003fc80     ff2 (0003fc80)     _g_usPutWriteIndexes
0003fc84     ff2 (0003fc80)     _g_usGetReadIndexes

00047000    11c0 (00047000)     _Emif1Regs

00047800    11e0 (00047800)     _Emif2Regs

00048000    1200 (00048000)     _CanaRegs

0004a000    1280 (0004a000)     _CanbRegs

00050000    1400 (00050000)     _IpcRegs
00050024    1400 (00050000)     _FlashPumpSemaphoreRegs

0005d000    1740 (0005d000)     _DevCfgRegs

0005d180    1746 (0005d180)     _AnalogSubsysRegs

0005d200    1748 (0005d200)     _ClkCfgRegs

0005d300    174c (0005d300)     _CpuSysRegs

0005e608    1798 (0005e600)     _RomPrefetchRegs

0005f000    17c0 (0005f000)     _DcsmZ1Regs

0005f040    17c1 (0005f040)     _DcsmZ2Regs
0005f070    17c1 (0005f040)     _DcsmCommonRegs

0005f400    17d0 (0005f400)     _MemCfgRegs

0005f480    17d2 (0005f480)     _Emif1ConfigRegs
0005f4a0    17d2 (0005f480)     _Emif2ConfigRegs

0005f4c0    17d3 (0005f4c0)     _AccessProtectionRegs

0005f500    17d4 (0005f500)     _MemoryErrorRegs

0005f540    17d5 (0005f540)     _RomWaitStateRegs

0005f800    17e0 (0005f800)     _Flash0CtrlRegs

0005fb00    17ec (0005fb00)     _Flash0EccRegs

00078000    1e00 (00078000)     _DcsmZ1Otp

00078200    1e08 (00078200)     _DcsmZ2Otp


GLOBAL SYMBOLS: SORTED ALPHABETICALLY BY Name 

page  address   name                                  
----  -------   ----                                  
0     0000d000  .text                                 
0     000170c7  C$$EXIT                               
0     000168ca  FD$$ADD                               
0     00017073  FD$$CMP                               
0     00016b1a  FD$$DIV                               
0     00016c2d  FD$$MPY                               
0     000173e5  FD$$NEG                               
0     00017394  FD$$SUB                               
0     000171cd  FD$$TOI                               
0     000171ee  FD$$TOL                               
0     00016ba5  FS$$DIV                               
0     00017266  FS$$TOFD                              
0     0001713e  FS$$TOULL                             
0     000171ab  I$$DIV                                
0     000171bc  I$$MOD                                
0     00017249  I$$TOFD                               
0     0001709d  L$$DIV                                
0     000170ac  L$$MOD                                
0     00017282  L$$TOFD                               
0     000172d2  LL$$AND                               
0     0001720d  LL$$CMP                               
0     0001608b  LL$$DIV                               
0     000160c7  LL$$MOD                               
0     0001732f  LL$$MPY                               
0     000172da  LL$$OR                                
0     000172e2  LL$$XOR                               
0     000170ba  UL$$DIV                               
0     000170c1  UL$$MOD                               
0     00017319  UL$$TOFD                              
0     0001721f  ULL$$CMP                              
0     00016101  ULL$$DIV                              
0     00016130  ULL$$MOD                              
0     00017355  ULL$$TOFS                             
1     0000a622  _ADC                                  
0     000126c2  _ADCA1_ISR                            
0     00012942  _ADCA2_ISR                            
0     0001294c  _ADCA3_ISR                            
0     00012956  _ADCA4_ISR                            
0     00012938  _ADCA_EVT_ISR                         
0     000126cc  _ADCB1_ISR                            
0     0001296a  _ADCB2_ISR                            
0     00012974  _ADCB3_ISR                            
0     0001297e  _ADCB4_ISR                            
0     00012960  _ADCB_EVT_ISR                         
0     000126d6  _ADCC1_ISR                            
0     00012ad2  _ADCC2_ISR                            
0     00012adc  _ADCC3_ISR                            
0     00012ae6  _ADCC4_ISR                            
0     00012ac8  _ADCC_EVT_ISR                         
0     000126f4  _ADCD1_ISR                            
0     00012afa  _ADCD2_ISR                            
0     00012b04  _ADCD3_ISR                            
0     00012b0e  _ADCD4_ISR                            
0     00012af0  _ADCD_EVT_ISR                         
0     00012b4a  _AUX_PLL_SLIP_ISR                     
1     0005f4c0  _AccessProtectionRegs                 
1     00007400  _AdcaRegs                             
1     00000b00  _AdcaResultRegs                       
1     00007480  _AdcbRegs                             
1     00000b20  _AdcbResultRegs                       
1     00007500  _AdccRegs                             
1     00000b40  _AdccResultRegs                       
1     00007580  _AdcdRegs                             
1     00000b60  _AdcdResultRegs                       
1     0005d180  _AnalogSubsysRegs                     
0     00013d45  _AuxAuxClkSel                         
0     00013d2f  _AuxIntOsc2Sel                        
0     00013d39  _AuxXtalOscSel                        
0     00012910  _CANA0_ISR                            
0     0001291a  _CANA1_ISR                            
0     00012924  _CANB0_ISR                            
0     0001292e  _CANB1_ISR                            
0     00012988  _CLA1_1_ISR                           
0     00012992  _CLA1_2_ISR                           
0     0001299c  _CLA1_3_ISR                           
0     000129a6  _CLA1_4_ISR                           
0     000129b0  _CLA1_5_ISR                           
0     000129ba  _CLA1_6_ISR                           
0     000129c4  _CLA1_7_ISR                           
0     000129ce  _CLA1_8_ISR                           
0     00012b54  _CLA_OVERFLOW_ISR                     
0     00012b5e  _CLA_UNDERFLOW_ISR                    
1     00048000  _CanaRegs                             
1     0004a000  _CanbRegs                             
1     00001400  _Cla1Regs                             
0     00000ce0  _Cla1SoftIntRegs                      
1     0005d200  _ClkCfgRegs                           
1     00005c80  _Cmpss1Regs                           
1     00005ca0  _Cmpss2Regs                           
1     00005cc0  _Cmpss3Regs                           
1     00005ce0  _Cmpss4Regs                           
1     00005d00  _Cmpss5Regs                           
1     00005d20  _Cmpss6Regs                           
1     00005d40  _Cmpss7Regs                           
1     00005d60  _Cmpss8Regs                           
0     0000d000  _ConfigDescAlloc                      
0     0000d051  _ConfigDescFree                       
1     0005d300  _CpuSysRegs                           
1     00008cf8  _CpuTimer0                            
1     00000c00  _CpuTimer0Regs                        
1     00008ce8  _CpuTimer1                            
1     00000c08  _CpuTimer1Regs                        
1     00008cf0  _CpuTimer2                            
1     00000c10  _CpuTimer2Regs                        
0     00013cee  _CsmUnlock                            
0     00012618  _DATALOG_ISR                          
0     0001285c  _DMA_CH1_ISR                          
0     00012866  _DMA_CH2_ISR                          
0     00012870  _DMA_CH3_ISR                          
0     0001287a  _DMA_CH4_ISR                          
0     00012884  _DMA_CH5_ISR                          
0     0001288e  _DMA_CH6_ISR                          
1     00005c00  _DacaRegs                             
1     00005c10  _DacbRegs                             
1     00005c20  _DaccRegs                             
1     0005f070  _DcsmCommonRegs                       
1     00078000  _DcsmZ1Otp                            
1     0005f000  _DcsmZ1Regs                           
1     00078200  _DcsmZ2Otp                            
1     0005f040  _DcsmZ2Regs                           
1     0005d000  _DevCfgRegs                           
0     00013b52  _DisableDog                           
0     00013b13  _DisablePeripheralClocks              
1     00007980  _DmaClaSrcSelRegs                     
1     00001000  _DmaRegs                              
1     0000a62c  _ECAP                                 
0     000127b2  _ECAP1_ISR                            
0     000127bc  _ECAP2_ISR                            
0     000127c6  _ECAP3_ISR                            
0     000127d0  _ECAP4_ISR                            
0     000127da  _ECAP5_ISR                            
0     000127e4  _ECAP6_ISR                            
1     00005000  _ECap1Regs                            
1     00005020  _ECap2Regs                            
1     00005040  _ECap3Regs                            
1     00005060  _ECap4Regs                            
1     00005080  _ECap5Regs                            
1     000050a0  _ECap6Regs                            
0     00012b18  _EMIF_ERROR_ISR                       
0     00012b72  _EMPTY_ISR                            
0     0001262c  _EMU_ISR                              
1     0000a640  _EPWM                                 
0     00012a6e  _EPWM10_ISR                           
0     00012a46  _EPWM10_TZ_ISR                        
0     00012a78  _EPWM11_ISR                           
0     00012a50  _EPWM11_TZ_ISR                        
0     00012a82  _EPWM12_ISR                           
0     00012a5a  _EPWM12_TZ_ISR                        
0     00012762  _EPWM1_ISR                            
0     00012712  _EPWM1_TZ_ISR                         
0     0001276c  _EPWM2_ISR                            
0     0001271c  _EPWM2_TZ_ISR                         
0     00012776  _EPWM3_ISR                            
0     00012726  _EPWM3_TZ_ISR                         
0     00012780  _EPWM4_ISR                            
0     00012730  _EPWM4_TZ_ISR                         
0     0001278a  _EPWM5_ISR                            
0     0001273a  _EPWM5_TZ_ISR                         
0     00012794  _EPWM6_ISR                            
0     00012744  _EPWM6_TZ_ISR                         
0     0001279e  _EPWM7_ISR                            
0     0001274e  _EPWM7_TZ_ISR                         
0     000127a8  _EPWM8_ISR                            
0     00012758  _EPWM8_TZ_ISR                         
0     00012a64  _EPWM9_ISR                            
0     00012a3c  _EPWM9_TZ_ISR                         
1     00004900  _EPwm10Regs                           
1     00004a00  _EPwm11Regs                           
1     00004b00  _EPwm12Regs                           
1     00004000  _EPwm1Regs                            
1     00004100  _EPwm2Regs                            
1     00004200  _EPwm3Regs                            
1     00004300  _EPwm4Regs                            
1     00004400  _EPwm5Regs                            
1     00004500  _EPwm6Regs                            
1     00004600  _EPwm7Regs                            
1     00004700  _EPwm8Regs                            
1     00004800  _EPwm9Regs                            
1     00007a00  _EPwmXbarRegs                         
1     0000a612  _EQEP                                 
0     000127ee  _EQEP1_ISR                            
0     000127f8  _EQEP2_ISR                            
0     00012802  _EQEP3_ISR                            
1     00005100  _EQep1Regs                            
1     00005140  _EQep2Regs                            
1     00005180  _EQep3Regs                            
1     0005f480  _Emif1ConfigRegs                      
1     00047000  _Emif1Regs                            
1     0005f4a0  _Emif2ConfigRegs                      
1     00047800  _Emif2Regs                            
1     00000d01  _EmuBMode                             
1     00000d00  _EmuKey                               
0     0001710f  _EnableInterrupts                     
0     0000c000  _F28x_usDelay                         
0     00012b2c  _FLASH_CORRECTABLE_ERROR_ISR          
0     00012a00  _FPU_OVERFLOW_ISR                     
0     00012a0a  _FPU_UNDERFLOW_ISR                    
1     0005f800  _Flash0CtrlRegs                       
1     0005fb00  _Flash0EccRegs                        
1     00050024  _FlashPumpSemaphoreRegs               
0     0001498d  _GPIO_EnableUnbondedIOPullups         
0     00014968  _GPIO_EnableUnbondedIOPullupsFor100Pin
0     0001494f  _GPIO_EnableUnbondedIOPullupsFor176Pin
0     000149a3  _GPIO_ReadPin                         
0     000148f4  _GPIO_SetupLock                       
0     000147d4  _GPIO_SetupPinMux                     
0     00014860  _GPIO_SetupPinOptions                 
0     0001491d  _GPIO_SetupXINT1Gpio                  
0     00014927  _GPIO_SetupXINT2Gpio                  
0     00014931  _GPIO_SetupXINT3Gpio                  
0     0001493b  _GPIO_SetupXINT4Gpio                  
0     00014945  _GPIO_SetupXINT5Gpio                  
0     000149ba  _GPIO_WritePin                        
1     00007c00  _GpioCtrlRegs                         
1     00007f00  _GpioDataRegs                         
0     00013d63  _HALT                                 
0     00013d7c  _HIB                                  
1     0000a608  _I2C                                  
0     000128a2  _I2CA_FIFO_ISR                        
0     00012898  _I2CA_ISR                             
0     000128b6  _I2CB_FIFO_ISR                        
0     000128ac  _I2CB_ISR                             
1     00007300  _I2caRegs                             
1     00007340  _I2cbRegs                             
0     00013d4f  _IDLE                                 
0     00012640  _ILLEGAL_ISR                          
0     00012a14  _IPC0_ISR                             
0     00012a1e  _IPC1_ISR                             
0     00012a28  _IPC2_ISR                             
0     00012a32  _IPC3_ISR                             
0     00013c26  _InitAuxPll                           
0     00014794  _InitGpio                             
0     00013a8f  _InitPeripheralClocks                 
0     000170f0  _InitPieCtrl                          
0     00017118  _InitPieVectTable                     
0     00013a5e  _InitSysCtrl                          
0     00013b60  _InitSysPll                           
1     00007900  _InputXbarRegs                        
0     00017385  _IntDefaultHandler                    
0     00014ed9  _IntDisable                           
0     00014e46  _IntEnable                            
0     00014f59  _IntIFRClear                          
0     00014e16  _IntMasterDisable                     
0     00014e0e  _IntMasterEnable                      
0     00014e1e  _IntRegister                          
0     00014e31  _IntUnregister                        
0     0000e0f0  _InternalUSBHCDSendEvent              
0     00016cd9  _InternalUSBRegisterTickHandler       
0     00016d07  _InternalUSBStartOfFrameTick          
0     00016cb0  _InternalUSBTickInit                  
0     00016cd5  _InternalUSBTickReset                 
1     00050000  _IpcRegs                              
1     0000a604  _MCBSP                                
0     00012834  _MCBSPA_RX_ISR                        
0     0001283e  _MCBSPA_TX_ISR                        
0     00012848  _MCBSPB_RX_ISR                        
0     00012852  _MCBSPB_TX_ISR                        
1     00006000  _McbspaRegs                           
1     00006040  _McbspbRegs                           
1     0005f400  _MemCfgRegs                           
1     0005f500  _MemoryErrorRegs                      
0     00012636  _NMI_ISR                              
0     00012b7f  _NOTUSED_ISR                          
1     00007060  _NmiIntruptRegs                       
0     00014738  _OTGDeviceDisconnect                  
1     00007a80  _OutputXbarRegs                       
0     00012b68  _PIE_RESERVED_ISR                     
1     00000ce0  _PieCtrlRegs                          
1     00000d00  _PieVectTable                         
1     0000ad70  _PieVectTableInit                     
0     00012b36  _RAM_ACCESS_VIOLATION_ISR             
0     00012b22  _RAM_CORRECTABLE_ERROR_ISR            
0     00012622  _RTOS_ISR                             
0     00013b3a  _ReleaseFlashPump                     
1     0005e608  _RomPrefetchRegs                      
1     0005f540  _RomWaitStateRegs                     
1     0000a600  _SCI                                  
0     000128e8  _SCIA_RX_ISR                          
0     000128f2  _SCIA_TX_ISR                          
0     000128fc  _SCIB_RX_ISR                          
0     00012906  _SCIB_TX_ISR                          
0     000128c0  _SCIC_RX_ISR                          
0     000128ca  _SCIC_TX_ISR                          
0     000128d4  _SCID_RX_ISR                          
0     000128de  _SCID_TX_ISR                          
0     00012a8c  _SD1_ISR                              
0     00012a96  _SD2_ISR                              
1     0000a60c  _SDFM                                 
1     0000a61a  _SPI                                  
0     0001280c  _SPIA_RX_ISR                          
0     00012816  _SPIA_TX_ISR                          
0     00012820  _SPIB_RX_ISR                          
0     0001282a  _SPIB_TX_ISR                          
0     00012aa0  _SPIC_RX_ISR                          
0     00012aaa  _SPIC_TX_ISR                          
0     00013d58  _STANDBY                              
0     00012b40  _SYS_PLL_SLIP_ISR                     
1     00007200  _SciaRegs                             
1     00007210  _ScibRegs                             
1     00007220  _ScicRegs                             
1     00007230  _ScidRegs                             
1     00005e00  _Sdfm1Regs                            
1     00005e80  _Sdfm2Regs                            
0     00013b2b  _SeizeFlashPump                       
0     00013b44  _ServiceDog                           
0     0001740b  _SetDBGIER                            
1     00006100  _SpiaRegs                             
1     00006110  _SpibRegs                             
1     00006120  _SpicRegs                             
1     00007940  _SyncSocRegs                          
0     00014b9b  _SysCtlAuxClockSet                    
0     00014a9c  _SysCtlClockGet                       
0     00014aff  _SysCtlClockSet                       
0     0000c004  _SysCtlDelay                          
0     00014ae8  _SysCtlLowSpeedClockGet               
0     00014a77  _SysCtlPeripheralDisable              
0     00014a5d  _SysCtlPeripheralEnable               
0     000149d8  _SysCtlPeripheralPresent              
0     000149f7  _SysCtlPeripheralReady                
0     00014a31  _SysCtlPeripheralReset                
0     00014a92  _SysCtlReset                          
0     00014c1a  _SysCtlUSBPLLDisable                  
0     00014c19  _SysCtlUSBPLLEnable                   
0     00013d0f  _SysIntOsc1Sel                        
0     00013d19  _SysIntOsc2Sel                        
0     00013d23  _SysXtalOscSel                        
0     000126fe  _TIMER0_ISR                           
0     00012604  _TIMER1_ISR                           
0     0001260e  _TIMER2_ISR                           
1     0000a65a  _TRIP_SEL                             
0     00012ab4  _UPPA_ISR                             
0     00017343  _USB0DeviceIntHandler                 
0     0001458b  _USB0DualModeIntHandler               
0     0000e075  _USB0HostIntHandler                   
0     000146b9  _USB0OTGModeIntHandler                
0     00012abe  _USBA_ISR                             
0     00015c6a  _USBDCDConfigDescGet                  
0     00015c45  _USBDCDConfigDescGetNum               
0     00015c2c  _USBDCDConfigDescGetSize              
0     00015cd3  _USBDCDConfigGetInterface             
0     00015cec  _USBDCDConfigGetInterfaceEndpoint     
0     00015cae  _USBDCDConfigGetNumAlternateInterfaces
0     00010713  _USBDCDDeviceInfoInit                 
0     00010725  _USBDCDInit                           
0     00010812  _USBDCDPowerStatusSet                 
0     0001081f  _USBDCDRemoteWakeupRequest            
0     000107dc  _USBDCDRequestDataEP0                 
0     000107ea  _USBDCDSendDataEP0                    
0     000107f9  _USBDCDSetDefaultConfiguration        
0     00010801  _USBDCDStallEP0                       
0     000107a7  _USBDCDTerm                           
0     00016540  _USBDescGet                           
0     000165b9  _USBDescGetInterface                  
0     000165d3  _USBDescGetInterfaceEndpoint          
0     0001651a  _USBDescGetNum                        
0     0001656b  _USBDescGetNumAlternateInterfaces     
0     00011a75  _USBDevAddrGet                        
0     00011a6e  _USBDevAddrSet                        
0     00011a59  _USBDevConnect                        
0     00011a63  _USBDevDisconnect                     
0     00011b7e  _USBDevEndpointConfigGet              
0     00011b1d  _USBDevEndpointConfigSet              
0     00011d2f  _USBDevEndpointDataAck                
0     000119fc  _USBDevEndpointStall                  
0     00011a21  _USBDevEndpointStallClear             
0     00011953  _USBDevEndpointStatusClear            
0     00011f58  _USBDevMode                           
0     000140d9  _USBDeviceConfig                      
0     00014276  _USBDeviceConfigAlternate             
0     000108a2  _USBDeviceEnumHandler                 
0     00010962  _USBDeviceEnumResetHandler            
0     00010ec7  _USBDeviceIntHandlerInternal          
0     00010835  _USBDeviceResumeTickHandler           
0     000145c5  _USBDualModeInit                      
0     00014608  _USBDualModeTerm                      
0     00011f23  _USBEndpointDMAChannel                
0     00011c5f  _USBEndpointDMAConfigSet              
0     00011cb9  _USBEndpointDMADisable                
0     00011ca1  _USBEndpointDMAEnable                 
0     00011cd3  _USBEndpointDataAvail                 
0     00011cef  _USBEndpointDataGet                   
0     00011d68  _USBEndpointDataPut                   
0     00011d92  _USBEndpointDataSend                  
0     000119e4  _USBEndpointDataToggleClear           
0     00011f83  _USBEndpointPacketCountSet            
0     00011918  _USBEndpointStatus                    
0     00011f0f  _USBFIFOAddrGet                       
0     00011c1f  _USBFIFOConfigGet                     
0     00011be1  _USBFIFOConfigSet                     
0     00011dc1  _USBFIFOFlush                         
0     00011ef2  _USBFrameNumberGet                    
0     0000e361  _USBHCDControlTransfer                
0     0000e55a  _USBHCDDevAddress                     
0     0000e56e  _USBHCDDevClass                       
0     0000e546  _USBHCDDevHubPort                     
0     0000e5b8  _USBHCDDevProtocol                    
0     0000e593  _USBHCDDevSubClass                    
0     0000d0d3  _USBHCDEventDisable                   
0     0000d0be  _USBHCDEventEnable                    
0     0000e3f3  _USBHCDHubDeviceConnected             
0     0000e44b  _USBHCDHubDeviceDisconnected          
0     0000d9ce  _USBHCDInit                           
0     0000e19f  _USBHCDMain                           
0     0000d397  _USBHCDPipeAlloc                      
0     0000d1a1  _USBHCDPipeAllocSize                  
0     0000d3a6  _USBHCDPipeConfig                     
0     0000d64d  _USBHCDPipeDataAck                    
0     0000d77f  _USBHCDPipeFree                       
0     0000d66a  _USBHCDPipeRead                       
0     0000d622  _USBHCDPipeReadNonBlocking            
0     0000d57b  _USBHCDPipeSchedule                   
0     0000d476  _USBHCDPipeStatus                     
0     0000d47b  _USBHCDPipeWrite                      
0     0000d9c3  _USBHCDPowerAutomatic                 
0     0000d992  _USBHCDPowerConfigGet                 
0     0000d98a  _USBHCDPowerConfigInit                
0     0000d999  _USBHCDPowerConfigSet                 
0     0000da23  _USBHCDRegisterDrivers                
0     0000da8e  _USBHCDReset                          
0     0000dabd  _USBHCDResume                         
0     0000db7b  _USBHCDSetAddress                     
0     0000dc24  _USBHCDSetConfig                      
0     0000dc48  _USBHCDSetInterface                   
0     0000dab4  _USBHCDSuspend                        
0     0000da2e  _USBHCDTerm                           
0     00013380  _USBHHubClose                         
0     00013350  _USBHHubEnumerationComplete           
0     00013361  _USBHHubEnumerationError              
0     00013389  _USBHHubInit                          
0     00013263  _USBHHubMain                          
0     00013372  _USBHHubOpen                          
0     00011e48  _USBHostAddrGet                       
0     00011e30  _USBHostAddrSet                       
0     0000dc74  _USBHostCheckPipes                    
0     00011a7d  _USBHostEndpointConfig                
0     00011d4f  _USBHostEndpointDataAck               
0     00011993  _USBHostEndpointDataToggle            
0     0001192d  _USBHostEndpointStatusClear           
0     00011e90  _USBHostHubAddrGet                    
0     00011e62  _USBHostHubAddrSet                    
0     0000dcff  _USBHostIntHandlerInternal            
0     00011f4d  _USBHostMode                          
0     00011eaa  _USBHostPwrConfig                     
0     00011ee7  _USBHostPwrDisable                    
0     00011edc  _USBHostPwrEnable                     
0     00011ed1  _USBHostPwrFaultDisable               
0     00011ec6  _USBHostPwrFaultEnable                
0     00011dfb  _USBHostRequestIN                     
0     00011e0f  _USBHostRequestINClear                
0     00011e25  _USBHostRequestStatus                 
0     000117dd  _USBHostReset                         
0     000117f2  _USBHostResume                        
0     00011807  _USBHostSpeedGet                      
0     000117d3  _USBHostSuspend                       
0     0001181e  _USBIntDisableControl                 
0     000118c9  _USBIntDisableEndpoint                
0     00011841  _USBIntEnableControl                  
0     000118db  _USBIntEnableEndpoint                 
0     000118fe  _USBIntRegister                       
0     00011861  _USBIntStatus                         
0     000118a4  _USBIntStatusControl                  
0     000118eb  _USBIntStatusEndpoint                 
0     0001190c  _USBIntUnregister                     
0     000164bf  _USBLibDMAInit                        
0     00011f18  _USBModeGet                           
0     00011f92  _USBNumEndpointsGet                   
0     00014746  _USBOTGMain                           
0     00011f63  _USBOTGMode                           
0     0001463d  _USBOTGModeInit                       
0     00014621  _USBOTGModeTerm                       
0     000146b1  _USBOTGPollRate                       
0     00011efa  _USBOTGSessionRequest                 
0     00011f6e  _USBPHYPowerOff                       
0     00011f78  _USBPHYPowerOn                        
0     00014575  _USBStackModeSet                      
0     000126a4  _USER10_ISR                           
0     000126ae  _USER11_ISR                           
0     000126b8  _USER12_ISR                           
0     0001264a  _USER1_ISR                            
0     00012654  _USER2_ISR                            
0     0001265e  _USER3_ISR                            
0     00012668  _USER4_ISR                            
0     00012672  _USER5_ISR                            
0     0001267c  _USER6_ISR                            
0     00012686  _USER7_ISR                            
0     00012690  _USER8_ISR                            
0     0001269a  _USER9_ISR                            
1     00006200  _UppRegs                              
0     000129f6  _VCU_ISR                              
0     00012708  _WAKE_ISR                             
1     00007000  _WdRegs                               
0     000126e0  _XINT1_ISR                            
0     000126ea  _XINT2_ISR                            
0     000129d8  _XINT3_ISR                            
0     000129e2  _XINT4_ISR                            
0     000129ec  _XINT5_ISR                            
1     00007920  _XbarRegs                             
1     00007070  _XintRegs                             
1     0000c000  __STACK_END                           
abs   00000800  __STACK_SIZE                          
1     0000a67a  ___TI_cleanup_ptr                     
1     0000a67c  ___TI_dtors_ptr                       
1     0000a678  ___TI_enable_exit_profile_output      
abs   ffffffff  ___TI_pprof_out_hndl                  
0     0000fd33  ___TI_printfi                         
abs   ffffffff  ___TI_prof_data_size                  
abs   ffffffff  ___TI_prof_data_start                 
0     00012376  ___TI_scanfi                          
abs   ffffffff  ___binit__                            
abs   ffffffff  ___c_args__                           
abs   ffffffff  ___cinit__                            
0     00017413  ___etext__                            
abs   ffffffff  ___pinit__                            
0     0000d000  ___text__                             
0     000172b9  __args_main                           
1     00018106  __ctypes_                             
1     000087bc  __lock                                
0     000173e4  __nop                                 
0     000173e0  __register_lock                       
0     000173dc  __register_unlock                     
1     0000b800  __stack                               
0     0000f24f  __system_post_cinit                   
0     00017411  __system_pre_init                     
1     000087be  __unlock                              
0     000170c7  _abort                                
1     00009d81  _argc                                 
1     00009d82  _argv_buf                             
0     00016fe3  _atoi                                 
0     0001587f  _bsp_DMACH_AddrConfig                 
0     0001589b  _bsp_DMACH_BurstConfig                
0     0001586c  _bsp_DMACH_ISRConfig                  
0     000158e8  _bsp_DMACH_Init                       
0     0001585f  _bsp_DMACH_ModeConfig                 
0     000158df  _bsp_DMACH_Start                      
0     000158ac  _bsp_DMACH_TransferConfig             
0     000157f2  _bsp_DMACH_TrigSrcSel                 
0     000158c1  _bsp_DMACH_WrapConfig                 
0     000159c2  _bsp_aux_clk_init                     
0     000158ee  _bsp_clk_cal                          
0     00015a50  _bsp_clk_get_auxclk                   
0     00015a5a  _bsp_clk_get_epwmclk                  
0     00015a55  _bsp_clk_get_lspclk                   
0     00015a4b  _bsp_clk_get_sysclk                   
1     00009f78  _bsp_clk_info                         
0     00015a33  _bsp_clk_init                         
0     0001577c  _bsp_dma_clk_init                     
1     00008d00  _bsp_gpio_info                        
0     00016da9  _bsp_gpio_init                        
0     00016e0d  _bsp_gpio_read                        
0     00016e06  _bsp_gpio_set                         
0     00016e13  _bsp_gpio_toggle                      
0     00017312  _bsp_init                             
0     000159f6  _bsp_pclk_init                        
0     00017302  _bsp_reset                            
0     0001518b  _bsp_spi_clk_init                     
0     000152dd  _bsp_spi_init                         
0     0001527a  _bsp_spi_reset                        
0     000151d5  _bsp_spi_set_baud                     
0     0001598d  _bsp_sys_clk_init                     
0     00016283  _bsp_timer_clk_init                   
0     00016327  _bsp_timer_ctr_set                    
0     00016354  _bsp_timer_init                       
0     000162c6  _bsp_timer_preinit                    
0     000162d3  _bsp_timer_reset                      
0     000162ed  _bsp_timer_tim_set                    
0     00014c1b  _bsp_uart_clk_init                    
0     00014c7f  _bsp_uart_init                        
0     00014da5  _bsp_uart_reset                       
0     00014cae  _bsp_uart_set                         
0     00016f3d  _c_int00                              
1     00009840  _comtest_bash                         
1     00009880  _comtest_ctrl                         
1     00009800  _comtest_err_test                     
0     00012e9c  _configtimer                          
0     00017163  _copy_in                              
0     00017187  _copysignl                            
0     00016fc2  _crc8                                 
1     0000a3c0  _crc8_table                           
0     00012d35  _deltimer                             
1     00008b00  _dev_ctrl_spia                        
1     00008a00  _dev_ctrl_spib                        
1     00008a80  _dev_ctrl_spic                        
1     0000a000  _dev_dma                              
1     0000a012  _dev_dma_array                        
0     00013fc4  _dev_dma_init                         
0     00015000  _dev_get_type                         
0     000173fd  _dev_init                             
1     00008800  _dev_spi_array                        
0     00010650  _dev_spi_init                         
1     0000a1cc  _dev_timer_array                      
0     00012f0a  _dev_timer_init                       
1     00008008  _dev_uart_array                       
0     00013992  _dev_uart_init                        
1     000087bb  _deviceOpen                           
1     0000a100  _dma_ch1                              
0     00015d1d  _dma_ch1_isr_handler                  
1     0000a0c0  _dma_ch2                              
0     00015d4f  _dma_ch2_isr_handler                  
1     0000a180  _dma_ch3                              
0     00015d81  _dma_ch3_isr_handler                  
1     0000a140  _dma_ch4                              
0     00015db3  _dma_ch4_isr_handler                  
1     0000a040  _dma_ch5                              
0     00015de5  _dma_ch5_isr_handler                  
1     0000a080  _dma_ch6                              
0     00015e17  _dma_ch6_isr_handler                  
0     00013edd  _dma_ch_isr_handler                   
0     00013e03  _dma_dat_cpy_ch                       
0     00013e69  _dma_dev_bind_ch                      
0     00013f5d  _dma_dev_cpy                          
0     00013f92  _dma_dev_cpy_h                        
0     00013fbe  _dma_dev_free                         
0     00013dee  _dma_free_ch                          
0     00013dbe  _dma_get_idle_ch                      
0     00013de0  _dma_get_idle_hch                     
0     00013f0e  _dma_memcpy                           
0     00013f3a  _dma_memcpy_h                         
1     0000a006  _dma_phy_ptr                          
0     00013da2  _dmach_default_cfg                    
1     000087fe  _errno                                
0     000170c9  _exit                                 
0     000169f9  _f28x_USB0DeviceIntHandler            
0     00016a5b  _f28x_USB0DualModeIntHandler          
0     00016a2a  _f28x_USB0HostIntHandler              
0     00012c1a  _feed                                 
0     00012bc0  _feed_rtc                             
0     000165e5  _flush                                
0     0001666d  _fprint                               
0     00016e8c  _frexpl                               
1     0003fc00  _g_asIPCCPU1toCPU2Buffers             
0     0003f800  _g_asIPCCPU2toCPU1Buffers             
1     0000a6a0  _g_bUSBTimerInitialized               
1     0000a6e2  _g_eOTGModeState                      
1     0000a6e1  _g_iUSBMode                           
1     0000a6a6  _g_pfnTickHandlers                    
1     00009f64  _g_ppCompConfigDescriptors            
1     00009780  _g_ppsDevInfo                         
1     00008798  _g_psAudioSections                    
1     0000a680  _g_psBulkSections                     
1     00009754  _g_psCDCCompSerSections               
1     0000974e  _g_psCDCSerSections                   
1     00009784  _g_psDCDInst                          
1     00009a9e  _g_psDFUSections                      
1     0000a366  _g_psHIDSections                      
1     0000afc3  _g_pui8AudioControlInterface          
1     00018512  _g_pui8AudioStreamInterface           
1     0000a684  _g_pui8BulkDescriptor                 
1     0000a68d  _g_pui8BulkDeviceDescriptor           
1     00018684  _g_pui8BulkInterface                  
1     0001860e  _g_pui8CDCSerCommInterface            
1     0001869b  _g_pui8CDCSerDataInterface            
1     00009764  _g_pui8CDCSerDescriptor               
1     0000976d  _g_pui8CDCSerDeviceDescriptor         
1     00009ab6  _g_pui8DFUConfigDescriptor            
1     00009aad  _g_pui8DFUFunctionalDesc              
1     00009aa4  _g_pui8DFUInterface                   
1     0000a6c0  _g_pui8HIDDeviceDescriptor            
1     0001870e  _g_pui8HIDInEndpoint                  
1     0000a36e  _g_pui8HIDInterface                   
1     00008790  _g_pui8IADAudioDescriptor             
1     0000975c  _g_pui8IADSerDescriptor               
1     0000a377  _g_pui8MouseDescriptor                
1     0000a6b2  _g_pvTickInstance                     
1     00009ffc  _g_sAudioConfigSection                
1     0000a5fc  _g_sAudioControlInterfaceSection      
1     00018728  _g_sAudioStreamInterfaceSection       
1     0001872c  _g_sBulkConfigSection                 
1     00018730  _g_sBulkInterfaceSection              
1     00018734  _g_sCDCSerCommInterfaceSection        
1     00018738  _g_sCDCSerConfigSection               
1     0001873c  _g_sCDCSerDataInterfaceSection        
1     00009a9a  _g_sDFUConfigHeader                   
1     00018740  _g_sDFUConfigSection                  
1     00018744  _g_sDFUFunctionalDescSection          
1     00018748  _g_sDFUInterfaceSection               
1     0000a35e  _g_sHIDConfigHeader                   
1     00018750  _g_sHIDConfigSection                  
1     0000a362  _g_sHIDDescriptorSection              
1     00018758  _g_sHIDInEndpointSection              
1     00018760  _g_sHIDInterfaceSection               
1     00018768  _g_sIADAudioConfigSection             
1     0001876c  _g_sIADSerConfigSection               
1     0000a6a2  _g_ui32CurrentUSBTick                 
1     0000a6e6  _g_ui32PollRate                       
1     0000a6a4  _g_ui32USBSOFCount                    
1     0000a6e8  _g_ui32WaitTicks                      
1     0003fc84  _g_usGetReadIndexes                   
0     0003f880  _g_usGetWriteIndexes                  
0     0003f884  _g_usPutReadIndexes                   
1     0003fc80  _g_usPutWriteIndexes                  
0     0001668d  _getbyte                              
0     00015658  _getopt                               
1     00009dc0  _getoptbuf                            
0     000167fa  _getoptdebug                          
0     0001680b  _getoptstream                         
0     0001675e  _getoptstrwrite                       
0     00012f05  _help                                 
0     00016f93  _init_crc8                            
0     00014fd8  _io_get_class                         
0     0001516b  _ioctl                                
0     0001514d  _ioflush                              
0     000166a2  _ldexpl                               
0     00015094  _listen                               
0     00017045  _ltoa                                 
1     0000a380  _made_crc8_table                      
0     00017376  _main                                 
1     00009d80  _manual_reinit                        
0     000173a2  _memccpy                              
0     0001722b  _memcpy                               
0     0001729e  _memmove                              
0     000173af  _memset                               
1     00008ffc  _optarg                               
1     00008ff5  _opterr                               
1     00008ffa  _optind                               
1     00008ff3  _optopt                               
0     00011717  _pcQueueGetName                       
0     0000ead6  _pcTaskGetName                        
0     000134af  _pcTimerGetName                       
0     0001667f  _print                                
0     0000ed6b  _pvTaskGetThreadLocalStoragePointer   
0     0000efa2  _pvTaskIncrementMutexHeldCount        
0     000136e2  _pvTimerGetTimerID                    
1     00009f90  _pxCurrentTCB                         
0     0001530e  _pxPortInitialiseStack                
0     000150cf  _read                                 
0     00012e77  _readrtc                              
0     00012df8  _readtimer                            
0     00012dbc  _resettimer                           
0     000173f6  _root_init                            
0     000173fa  _root_main                            
0     00012d54  _runtimer                             
0     000166a2  _scalbnl                              
0     000165eb  _scan                                 
0     00012c7a  _settimer                             
1     00009b00  _sh                                   
0     000100d8  _spi_buf_reset                        
0     000100b7  _spi_default                          
0     00010197  _spi_dma_getdev                       
0     00010396  _spi_dma_handler_receive              
0     0001031b  _spi_dma_handler_send                 
0     0001007d  _spi_dma_init                         
0     0001028f  _spi_dma_receive                      
0     00010204  _spi_dma_send                         
0     000101c0  _spi_dma_trig                         
0     000104c0  _spi_flush                            
0     0001013c  _spi_get_sendbyte                     
0     00010642  _spi_ioctl                            
0     0001048a  _spi_listen                           
0     0000ffee  _spi_node_fifo_init                   
0     00010024  _spi_node_fifo_pop                    
0     0001000b  _spi_node_fifo_push                   
0     0001003e  _spi_node_select                      
0     0000ffd4  _spi_oper_chk                         
1     0000880c  _spi_operation                        
1     00008806  _spi_phy_ptr                          
0     0001041d  _spi_read                             
0     00010104  _spi_reset                            
0     00010327  _spi_trig_send                        
0     000104ca  _spi_vioctl                           
0     00010110  _spi_wait2send                        
0     000103a2  _spi_write                            
1     00008c80  _spia                                 
1     00008800  _spia_in                              
1     00008800  _spia_out                             
1     00008880  _spiain                               
1     00008840  _spiaout                              
1     00008b80  _spib                                 
1     00008800  _spib_in                              
1     00008800  _spib_out                             
1     00008816  _spibin                               
1     00008860  _spibout                              
1     00008c00  _spic                                 
1     00008900  _spic_in                              
1     00008980  _spic_out                             
0     00016d32  _spic_rx_isr_handler                  
0     00016d69  _spic_tx_isr_handler                  
1     000088c0  _spicin                               
1     000088a0  _spicout                              
0     000142e6  _spitest_chkframe                     
1     00009b40  _spitest_ctrl                         
1     00009ac0  _spitest_err_test                     
0     00014407  _spitest_fsm                          
0     000144e8  _spitest_init                         
0     0001451c  _spitest_main                         
0     00014316  _spitest_rcvdata                      
0     0001433a  _spitest_readcmd                      
0     000142fc  _spitest_tick                         
0     00016e2f  _sscanf                               
1     00009200  _std_in                               
1     00009040  _std_out                              
1     00009000  _stdio_dev                            
0     00012d88  _stoptimer                            
0     000173bb  _strchr                               
0     000173d2  _strcmp                               
0     00017402  _strcpy                               
0     000173ee  _strlen                               
0     000172ea  _strncmp                              
0     000173c7  _strrchr                              
0     00015f6e  _strtod                               
0     00015f6e  _strtof                               
0     00016368  _strtol                               
0     00015490  _strtold                              
0     00015a5f  _strtoll                              
0     00016817  _strtoul                              
0     00015e49  _strtoull                             
0     00017407  _sys_fault                            
0     00017368  _sys_init                             
0     00017366  _sys_reset                            
0     00017373  _sys_schd                             
0     0001702c  _sys_tick                             
0     00017014  _sys_tick_init                        
1     00008fbc  _tempSensor_scaleFactor               
1     00008fba  _tempSensor_tempOffset                
1     00008fbe  _tempSensor_tempSlope                 
1     0000a280  _timer0                               
0     00016a8c  _timer0_isr_handler                   
1     0000a1c0  _timer0_ptr                           
1     0000a300  _timer1                               
0     00016abe  _timer1_isr_handler                   
1     0000a1c2  _timer1_ptr                           
1     0000a200  _timer2                               
0     00016aec  _timer2_isr_handler                   
1     0000a1c4  _timer2_ptr                           
1     0000a1c6  _timer_phy_ptr                        
0     00013971  _uart_flush                           
0     0001389c  _uart_hook_485send_enter              
0     000138ae  _uart_hook_485send_quit               
0     0001394b  _uart_listen                          
1     00008000  _uart_phy_ptr                         
0     00013906  _uart_read                            
0     00013879  _uart_trig_send                       
0     000138c0  _uart_write                           
1     00008140  _uarta                                
1     00008000  _uarta_in                             
1     00008000  _uarta_out                            
1     00008040  _uartb                                
1     00008340  _uartb_in                             
1     00008440  _uartb_out                            
0     00016192  _uartb_rx_isr_handler                 
0     000161c9  _uartb_tx_isr_handler                 
1     000080c0  _uartc                                
1     00008240  _uartc_in                             
1     00008600  _uartc_out                            
0     00016209  _uartc_rx_isr_handler                 
0     00016240  _uartc_tx_isr_handler                 
1     000081c0  _uartd                                
1     00008000  _uartd_in                             
1     00008000  _uartd_out                            
1     000093be  _ulCriticalNesting                    
1     000093bc  _ulSecureNesting                      
1     000093ba  _ulTaskHasFPUContext                  
0     0000efac  _ulTaskNotifyTake                     
0     000169d5  _uxListRemove                         
0     00011556  _uxQueueMessagesWaiting               
0     0001158b  _uxQueueMessagesWaitingFromISR        
0     0001156d  _uxQueueSpacesAvailable               
0     0000ead2  _uxTaskGetNumberOfTasks               
0     0000e7eb  _uxTaskPriorityGet                    
0     0000e801  _uxTaskPriorityGetFromISR             
0     0000ef8d  _uxTaskResetEventItemValue            
0     00015481  _vApplicationGetIdleTaskMemory        
0     00015486  _vApplicationGetTimerTaskMemory       
0     0001548b  _vApplicationStackOverflowHook        
0     0001547c  _vAssertCalled                        
0     00016966  _vListInitialise                      
0     0001697d  _vListInitialiseItem                  
0     000169a1  _vListInsert                          
0     00016986  _vListInsertEnd                       
0     00015444  _vPortEndScheduler                    
0     00015456  _vPortEnterCritical                   
0     0001546a  _vPortEnterCriticalFromISR            
0     0001545e  _vPortExitCritical                    
0     0000b0ca  _vPortPreemptiveTick                  
0     0000b029  _vPortSWIUser1                        
0     0000b000  _vPortStartFirstTask                  
0     0001546e  _vPortTaskUsesFPU                     
0     000116f0  _vQueueAddToRegistry                  
0     0001159d  _vQueueDelete                         
0     00011739  _vQueueUnregisterQueue                
0     0001175f  _vQueueWaitForMessageRestricted       
0     0000e7c6  _vTaskDelay                           
0     0000e769  _vTaskDelayUntil                      
0     0000e719  _vTaskDelete                          
0     0000ea38  _vTaskEndScheduler                    
0     0000ecf2  _vTaskInternalSetTimeOutState         
0     0000ed42  _vTaskMissedYield                     
0     0000f179  _vTaskNotifyGiveFromISR               
0     0000ebc1  _vTaskPlaceOnEventList                
0     0000ec0d  _vTaskPlaceOnEventListRestricted      
0     0000ebdb  _vTaskPlaceOnUnorderedEventList       
0     0000eefc  _vTaskPriorityDisinheritAfterTimeout  
0     0000e813  _vTaskPrioritySet                     
0     0000ec81  _vTaskRemoveFromUnorderedEventList    
0     0000e94b  _vTaskResume                          
0     0000ed53  _vTaskSetThreadLocalStoragePointer    
0     0000ecd9  _vTaskSetTimeOutState                 
0     0000e9eb  _vTaskStartScheduler                  
0     0000e8b8  _vTaskSuspend                         
0     0000ea40  _vTaskSuspendAll                      
0     0000eb71  _vTaskSwitchContext                   
0     000136fb  _vTimerSetTimerID                     
0     00016639  _vfprint                              
0     00016ee6  _vsnprintf                            
0     00016e1f  _vsscanf                              
0     0001501c  _write                                
0     0001543a  _xPortStartScheduler                  
0     00011058  _xQueueCreateMutexStatic              
0     00010fc3  _xQueueGenericCreateStatic            
0     00010f5f  _xQueueGenericReset                   
0     0001106b  _xQueueGenericSend                    
0     00011148  _xQueueGenericSendFromISR             
0     000111c4  _xQueueGiveFromISR                    
0     000116a4  _xQueueIsQueueEmptyFromISR            
0     000116d3  _xQueueIsQueueFullFromISR             
0     000113e7  _xQueuePeek                           
0     0001150b  _xQueuePeekFromISR                    
0     00011235  _xQueueReceive                        
0     000114aa  _xQueueReceiveFromISR                 
1     00009d56  _xQueueRegistry                       
0     000112f9  _xQueueSemaphoreTake                  
0     0000ecfe  _xTaskCheckForTimeOut                 
0     0000e5dd  _xTaskCreateStatic                    
0     0000f035  _xTaskGenericNotify                   
0     0000f0d0  _xTaskGenericNotifyFromISR            
0     0000edf2  _xTaskGetCurrentTaskHandle            
0     0000edfa  _xTaskGetSchedulerState               
0     0000eabe  _xTaskGetTickCount                    
0     0000eaca  _xTaskGetTickCountFromISR             
0     0000eaee  _xTaskIncrementTick                   
0     0000f1ef  _xTaskNotifyStateClear                
0     0000efe9  _xTaskNotifyWait                      
0     0000ee8a  _xTaskPriorityDisinherit              
0     0000ee0b  _xTaskPriorityInherit                 
0     0000ec2c  _xTaskRemoveFromEventList             
0     0000ea44  _xTaskResumeAll                       
0     0000e99b  _xTaskResumeFromISR                   
0     000133cf  _xTimerCreateStatic                   
0     00013396  _xTimerCreateTimerTask                
0     00013432  _xTimerGenericCommand                 
0     0001349d  _xTimerGetExpiryTime                  
0     0001348a  _xTimerGetPeriod                      
0     00013477  _xTimerGetTimerDaemonTaskHandle       
0     000136bd  _xTimerIsTimerActive                  
abs   ffffffff  binit                                 
abs   ffffffff  cinit                                 
0     00000000  code_start                            
0     00017413  etext                                 
abs   ffffffff  pinit                                 


GLOBAL SYMBOLS: SORTED BY Symbol Address 

page  address   name                                  
----  -------   ----                                  
0     00000000  code_start                            
0     00000ce0  _Cla1SoftIntRegs                      
0     0000b000  _vPortStartFirstTask                  
0     0000b029  _vPortSWIUser1                        
0     0000b0ca  _vPortPreemptiveTick                  
0     0000c000  _F28x_usDelay                         
0     0000c004  _SysCtlDelay                          
0     0000d000  .text                                 
0     0000d000  _ConfigDescAlloc                      
0     0000d000  ___text__                             
0     0000d051  _ConfigDescFree                       
0     0000d0be  _USBHCDEventEnable                    
0     0000d0d3  _USBHCDEventDisable                   
0     0000d1a1  _USBHCDPipeAllocSize                  
0     0000d397  _USBHCDPipeAlloc                      
0     0000d3a6  _USBHCDPipeConfig                     
0     0000d476  _USBHCDPipeStatus                     
0     0000d47b  _USBHCDPipeWrite                      
0     0000d57b  _USBHCDPipeSchedule                   
0     0000d622  _USBHCDPipeReadNonBlocking            
0     0000d64d  _USBHCDPipeDataAck                    
0     0000d66a  _USBHCDPipeRead                       
0     0000d77f  _USBHCDPipeFree                       
0     0000d98a  _USBHCDPowerConfigInit                
0     0000d992  _USBHCDPowerConfigGet                 
0     0000d999  _USBHCDPowerConfigSet                 
0     0000d9c3  _USBHCDPowerAutomatic                 
0     0000d9ce  _USBHCDInit                           
0     0000da23  _USBHCDRegisterDrivers                
0     0000da2e  _USBHCDTerm                           
0     0000da8e  _USBHCDReset                          
0     0000dab4  _USBHCDSuspend                        
0     0000dabd  _USBHCDResume                         
0     0000db7b  _USBHCDSetAddress                     
0     0000dc24  _USBHCDSetConfig                      
0     0000dc48  _USBHCDSetInterface                   
0     0000dc74  _USBHostCheckPipes                    
0     0000dcff  _USBHostIntHandlerInternal            
0     0000e075  _USB0HostIntHandler                   
0     0000e0f0  _InternalUSBHCDSendEvent              
0     0000e19f  _USBHCDMain                           
0     0000e361  _USBHCDControlTransfer                
0     0000e3f3  _USBHCDHubDeviceConnected             
0     0000e44b  _USBHCDHubDeviceDisconnected          
0     0000e546  _USBHCDDevHubPort                     
0     0000e55a  _USBHCDDevAddress                     
0     0000e56e  _USBHCDDevClass                       
0     0000e593  _USBHCDDevSubClass                    
0     0000e5b8  _USBHCDDevProtocol                    
0     0000e5dd  _xTaskCreateStatic                    
0     0000e719  _vTaskDelete                          
0     0000e769  _vTaskDelayUntil                      
0     0000e7c6  _vTaskDelay                           
0     0000e7eb  _uxTaskPriorityGet                    
0     0000e801  _uxTaskPriorityGetFromISR             
0     0000e813  _vTaskPrioritySet                     
0     0000e8b8  _vTaskSuspend                         
0     0000e94b  _vTaskResume                          
0     0000e99b  _xTaskResumeFromISR                   
0     0000e9eb  _vTaskStartScheduler                  
0     0000ea38  _vTaskEndScheduler                    
0     0000ea40  _vTaskSuspendAll                      
0     0000ea44  _xTaskResumeAll                       
0     0000eabe  _xTaskGetTickCount                    
0     0000eaca  _xTaskGetTickCountFromISR             
0     0000ead2  _uxTaskGetNumberOfTasks               
0     0000ead6  _pcTaskGetName                        
0     0000eaee  _xTaskIncrementTick                   
0     0000eb71  _vTaskSwitchContext                   
0     0000ebc1  _vTaskPlaceOnEventList                
0     0000ebdb  _vTaskPlaceOnUnorderedEventList       
0     0000ec0d  _vTaskPlaceOnEventListRestricted      
0     0000ec2c  _xTaskRemoveFromEventList             
0     0000ec81  _vTaskRemoveFromUnorderedEventList    
0     0000ecd9  _vTaskSetTimeOutState                 
0     0000ecf2  _vTaskInternalSetTimeOutState         
0     0000ecfe  _xTaskCheckForTimeOut                 
0     0000ed42  _vTaskMissedYield                     
0     0000ed53  _vTaskSetThreadLocalStoragePointer    
0     0000ed6b  _pvTaskGetThreadLocalStoragePointer   
0     0000edf2  _xTaskGetCurrentTaskHandle            
0     0000edfa  _xTaskGetSchedulerState               
0     0000ee0b  _xTaskPriorityInherit                 
0     0000ee8a  _xTaskPriorityDisinherit              
0     0000eefc  _vTaskPriorityDisinheritAfterTimeout  
0     0000ef8d  _uxTaskResetEventItemValue            
0     0000efa2  _pvTaskIncrementMutexHeldCount        
0     0000efac  _ulTaskNotifyTake                     
0     0000efe9  _xTaskNotifyWait                      
0     0000f035  _xTaskGenericNotify                   
0     0000f0d0  _xTaskGenericNotifyFromISR            
0     0000f179  _vTaskNotifyGiveFromISR               
0     0000f1ef  _xTaskNotifyStateClear                
0     0000f24f  __system_post_cinit                   
0     0000fd33  ___TI_printfi                         
0     0000ffd4  _spi_oper_chk                         
0     0000ffee  _spi_node_fifo_init                   
0     0001000b  _spi_node_fifo_push                   
0     00010024  _spi_node_fifo_pop                    
0     0001003e  _spi_node_select                      
0     0001007d  _spi_dma_init                         
0     000100b7  _spi_default                          
0     000100d8  _spi_buf_reset                        
0     00010104  _spi_reset                            
0     00010110  _spi_wait2send                        
0     0001013c  _spi_get_sendbyte                     
0     00010197  _spi_dma_getdev                       
0     000101c0  _spi_dma_trig                         
0     00010204  _spi_dma_send                         
0     0001028f  _spi_dma_receive                      
0     0001031b  _spi_dma_handler_send                 
0     00010327  _spi_trig_send                        
0     00010396  _spi_dma_handler_receive              
0     000103a2  _spi_write                            
0     0001041d  _spi_read                             
0     0001048a  _spi_listen                           
0     000104c0  _spi_flush                            
0     000104ca  _spi_vioctl                           
0     00010642  _spi_ioctl                            
0     00010650  _dev_spi_init                         
0     00010713  _USBDCDDeviceInfoInit                 
0     00010725  _USBDCDInit                           
0     000107a7  _USBDCDTerm                           
0     000107dc  _USBDCDRequestDataEP0                 
0     000107ea  _USBDCDSendDataEP0                    
0     000107f9  _USBDCDSetDefaultConfiguration        
0     00010801  _USBDCDStallEP0                       
0     00010812  _USBDCDPowerStatusSet                 
0     0001081f  _USBDCDRemoteWakeupRequest            
0     00010835  _USBDeviceResumeTickHandler           
0     000108a2  _USBDeviceEnumHandler                 
0     00010962  _USBDeviceEnumResetHandler            
0     00010ec7  _USBDeviceIntHandlerInternal          
0     00010f5f  _xQueueGenericReset                   
0     00010fc3  _xQueueGenericCreateStatic            
0     00011058  _xQueueCreateMutexStatic              
0     0001106b  _xQueueGenericSend                    
0     00011148  _xQueueGenericSendFromISR             
0     000111c4  _xQueueGiveFromISR                    
0     00011235  _xQueueReceive                        
0     000112f9  _xQueueSemaphoreTake                  
0     000113e7  _xQueuePeek                           
0     000114aa  _xQueueReceiveFromISR                 
0     0001150b  _xQueuePeekFromISR                    
0     00011556  _uxQueueMessagesWaiting               
0     0001156d  _uxQueueSpacesAvailable               
0     0001158b  _uxQueueMessagesWaitingFromISR        
0     0001159d  _vQueueDelete                         
0     000116a4  _xQueueIsQueueEmptyFromISR            
0     000116d3  _xQueueIsQueueFullFromISR             
0     000116f0  _vQueueAddToRegistry                  
0     00011717  _pcQueueGetName                       
0     00011739  _vQueueUnregisterQueue                
0     0001175f  _vQueueWaitForMessageRestricted       
0     000117d3  _USBHostSuspend                       
0     000117dd  _USBHostReset                         
0     000117f2  _USBHostResume                        
0     00011807  _USBHostSpeedGet                      
0     0001181e  _USBIntDisableControl                 
0     00011841  _USBIntEnableControl                  
0     00011861  _USBIntStatus                         
0     000118a4  _USBIntStatusControl                  
0     000118c9  _USBIntDisableEndpoint                
0     000118db  _USBIntEnableEndpoint                 
0     000118eb  _USBIntStatusEndpoint                 
0     000118fe  _USBIntRegister                       
0     0001190c  _USBIntUnregister                     
0     00011918  _USBEndpointStatus                    
0     0001192d  _USBHostEndpointStatusClear           
0     00011953  _USBDevEndpointStatusClear            
0     00011993  _USBHostEndpointDataToggle            
0     000119e4  _USBEndpointDataToggleClear           
0     000119fc  _USBDevEndpointStall                  
0     00011a21  _USBDevEndpointStallClear             
0     00011a59  _USBDevConnect                        
0     00011a63  _USBDevDisconnect                     
0     00011a6e  _USBDevAddrSet                        
0     00011a75  _USBDevAddrGet                        
0     00011a7d  _USBHostEndpointConfig                
0     00011b1d  _USBDevEndpointConfigSet              
0     00011b7e  _USBDevEndpointConfigGet              
0     00011be1  _USBFIFOConfigSet                     
0     00011c1f  _USBFIFOConfigGet                     
0     00011c5f  _USBEndpointDMAConfigSet              
0     00011ca1  _USBEndpointDMAEnable                 
0     00011cb9  _USBEndpointDMADisable                
0     00011cd3  _USBEndpointDataAvail                 
0     00011cef  _USBEndpointDataGet                   
0     00011d2f  _USBDevEndpointDataAck                
0     00011d4f  _USBHostEndpointDataAck               
0     00011d68  _USBEndpointDataPut                   
0     00011d92  _USBEndpointDataSend                  
0     00011dc1  _USBFIFOFlush                         
0     00011dfb  _USBHostRequestIN                     
0     00011e0f  _USBHostRequestINClear                
0     00011e25  _USBHostRequestStatus                 
0     00011e30  _USBHostAddrSet                       
0     00011e48  _USBHostAddrGet                       
0     00011e62  _USBHostHubAddrSet                    
0     00011e90  _USBHostHubAddrGet                    
0     00011eaa  _USBHostPwrConfig                     
0     00011ec6  _USBHostPwrFaultEnable                
0     00011ed1  _USBHostPwrFaultDisable               
0     00011edc  _USBHostPwrEnable                     
0     00011ee7  _USBHostPwrDisable                    
0     00011ef2  _USBFrameNumberGet                    
0     00011efa  _USBOTGSessionRequest                 
0     00011f0f  _USBFIFOAddrGet                       
0     00011f18  _USBModeGet                           
0     00011f23  _USBEndpointDMAChannel                
0     00011f4d  _USBHostMode                          
0     00011f58  _USBDevMode                           
0     00011f63  _USBOTGMode                           
0     00011f6e  _USBPHYPowerOff                       
0     00011f78  _USBPHYPowerOn                        
0     00011f83  _USBEndpointPacketCountSet            
0     00011f92  _USBNumEndpointsGet                   
0     00012376  ___TI_scanfi                          
0     00012604  _TIMER1_ISR                           
0     0001260e  _TIMER2_ISR                           
0     00012618  _DATALOG_ISR                          
0     00012622  _RTOS_ISR                             
0     0001262c  _EMU_ISR                              
0     00012636  _NMI_ISR                              
0     00012640  _ILLEGAL_ISR                          
0     0001264a  _USER1_ISR                            
0     00012654  _USER2_ISR                            
0     0001265e  _USER3_ISR                            
0     00012668  _USER4_ISR                            
0     00012672  _USER5_ISR                            
0     0001267c  _USER6_ISR                            
0     00012686  _USER7_ISR                            
0     00012690  _USER8_ISR                            
0     0001269a  _USER9_ISR                            
0     000126a4  _USER10_ISR                           
0     000126ae  _USER11_ISR                           
0     000126b8  _USER12_ISR                           
0     000126c2  _ADCA1_ISR                            
0     000126cc  _ADCB1_ISR                            
0     000126d6  _ADCC1_ISR                            
0     000126e0  _XINT1_ISR                            
0     000126ea  _XINT2_ISR                            
0     000126f4  _ADCD1_ISR                            
0     000126fe  _TIMER0_ISR                           
0     00012708  _WAKE_ISR                             
0     00012712  _EPWM1_TZ_ISR                         
0     0001271c  _EPWM2_TZ_ISR                         
0     00012726  _EPWM3_TZ_ISR                         
0     00012730  _EPWM4_TZ_ISR                         
0     0001273a  _EPWM5_TZ_ISR                         
0     00012744  _EPWM6_TZ_ISR                         
0     0001274e  _EPWM7_TZ_ISR                         
0     00012758  _EPWM8_TZ_ISR                         
0     00012762  _EPWM1_ISR                            
0     0001276c  _EPWM2_ISR                            
0     00012776  _EPWM3_ISR                            
0     00012780  _EPWM4_ISR                            
0     0001278a  _EPWM5_ISR                            
0     00012794  _EPWM6_ISR                            
0     0001279e  _EPWM7_ISR                            
0     000127a8  _EPWM8_ISR                            
0     000127b2  _ECAP1_ISR                            
0     000127bc  _ECAP2_ISR                            
0     000127c6  _ECAP3_ISR                            
0     000127d0  _ECAP4_ISR                            
0     000127da  _ECAP5_ISR                            
0     000127e4  _ECAP6_ISR                            
0     000127ee  _EQEP1_ISR                            
0     000127f8  _EQEP2_ISR                            
0     00012802  _EQEP3_ISR                            
0     0001280c  _SPIA_RX_ISR                          
0     00012816  _SPIA_TX_ISR                          
0     00012820  _SPIB_RX_ISR                          
0     0001282a  _SPIB_TX_ISR                          
0     00012834  _MCBSPA_RX_ISR                        
0     0001283e  _MCBSPA_TX_ISR                        
0     00012848  _MCBSPB_RX_ISR                        
0     00012852  _MCBSPB_TX_ISR                        
0     0001285c  _DMA_CH1_ISR                          
0     00012866  _DMA_CH2_ISR                          
0     00012870  _DMA_CH3_ISR                          
0     0001287a  _DMA_CH4_ISR                          
0     00012884  _DMA_CH5_ISR                          
0     0001288e  _DMA_CH6_ISR                          
0     00012898  _I2CA_ISR                             
0     000128a2  _I2CA_FIFO_ISR                        
0     000128ac  _I2CB_ISR                             
0     000128b6  _I2CB_FIFO_ISR                        
0     000128c0  _SCIC_RX_ISR                          
0     000128ca  _SCIC_TX_ISR                          
0     000128d4  _SCID_RX_ISR                          
0     000128de  _SCID_TX_ISR                          
0     000128e8  _SCIA_RX_ISR                          
0     000128f2  _SCIA_TX_ISR                          
0     000128fc  _SCIB_RX_ISR                          
0     00012906  _SCIB_TX_ISR                          
0     00012910  _CANA0_ISR                            
0     0001291a  _CANA1_ISR                            
0     00012924  _CANB0_ISR                            
0     0001292e  _CANB1_ISR                            
0     00012938  _ADCA_EVT_ISR                         
0     00012942  _ADCA2_ISR                            
0     0001294c  _ADCA3_ISR                            
0     00012956  _ADCA4_ISR                            
0     00012960  _ADCB_EVT_ISR                         
0     0001296a  _ADCB2_ISR                            
0     00012974  _ADCB3_ISR                            
0     0001297e  _ADCB4_ISR                            
0     00012988  _CLA1_1_ISR                           
0     00012992  _CLA1_2_ISR                           
0     0001299c  _CLA1_3_ISR                           
0     000129a6  _CLA1_4_ISR                           
0     000129b0  _CLA1_5_ISR                           
0     000129ba  _CLA1_6_ISR                           
0     000129c4  _CLA1_7_ISR                           
0     000129ce  _CLA1_8_ISR                           
0     000129d8  _XINT3_ISR                            
0     000129e2  _XINT4_ISR                            
0     000129ec  _XINT5_ISR                            
0     000129f6  _VCU_ISR                              
0     00012a00  _FPU_OVERFLOW_ISR                     
0     00012a0a  _FPU_UNDERFLOW_ISR                    
0     00012a14  _IPC0_ISR                             
0     00012a1e  _IPC1_ISR                             
0     00012a28  _IPC2_ISR                             
0     00012a32  _IPC3_ISR                             
0     00012a3c  _EPWM9_TZ_ISR                         
0     00012a46  _EPWM10_TZ_ISR                        
0     00012a50  _EPWM11_TZ_ISR                        
0     00012a5a  _EPWM12_TZ_ISR                        
0     00012a64  _EPWM9_ISR                            
0     00012a6e  _EPWM10_ISR                           
0     00012a78  _EPWM11_ISR                           
0     00012a82  _EPWM12_ISR                           
0     00012a8c  _SD1_ISR                              
0     00012a96  _SD2_ISR                              
0     00012aa0  _SPIC_RX_ISR                          
0     00012aaa  _SPIC_TX_ISR                          
0     00012ab4  _UPPA_ISR                             
0     00012abe  _USBA_ISR                             
0     00012ac8  _ADCC_EVT_ISR                         
0     00012ad2  _ADCC2_ISR                            
0     00012adc  _ADCC3_ISR                            
0     00012ae6  _ADCC4_ISR                            
0     00012af0  _ADCD_EVT_ISR                         
0     00012afa  _ADCD2_ISR                            
0     00012b04  _ADCD3_ISR                            
0     00012b0e  _ADCD4_ISR                            
0     00012b18  _EMIF_ERROR_ISR                       
0     00012b22  _RAM_CORRECTABLE_ERROR_ISR            
0     00012b2c  _FLASH_CORRECTABLE_ERROR_ISR          
0     00012b36  _RAM_ACCESS_VIOLATION_ISR             
0     00012b40  _SYS_PLL_SLIP_ISR                     
0     00012b4a  _AUX_PLL_SLIP_ISR                     
0     00012b54  _CLA_OVERFLOW_ISR                     
0     00012b5e  _CLA_UNDERFLOW_ISR                    
0     00012b68  _PIE_RESERVED_ISR                     
0     00012b72  _EMPTY_ISR                            
0     00012b7f  _NOTUSED_ISR                          
0     00012bc0  _feed_rtc                             
0     00012c1a  _feed                                 
0     00012c7a  _settimer                             
0     00012d35  _deltimer                             
0     00012d54  _runtimer                             
0     00012d88  _stoptimer                            
0     00012dbc  _resettimer                           
0     00012df8  _readtimer                            
0     00012e77  _readrtc                              
0     00012e9c  _configtimer                          
0     00012f05  _help                                 
0     00012f0a  _dev_timer_init                       
0     00013263  _USBHHubMain                          
0     00013350  _USBHHubEnumerationComplete           
0     00013361  _USBHHubEnumerationError              
0     00013372  _USBHHubOpen                          
0     00013380  _USBHHubClose                         
0     00013389  _USBHHubInit                          
0     00013396  _xTimerCreateTimerTask                
0     000133cf  _xTimerCreateStatic                   
0     00013432  _xTimerGenericCommand                 
0     00013477  _xTimerGetTimerDaemonTaskHandle       
0     0001348a  _xTimerGetPeriod                      
0     0001349d  _xTimerGetExpiryTime                  
0     000134af  _pcTimerGetName                       
0     000136bd  _xTimerIsTimerActive                  
0     000136e2  _pvTimerGetTimerID                    
0     000136fb  _vTimerSetTimerID                     
0     00013879  _uart_trig_send                       
0     0001389c  _uart_hook_485send_enter              
0     000138ae  _uart_hook_485send_quit               
0     000138c0  _uart_write                           
0     00013906  _uart_read                            
0     0001394b  _uart_listen                          
0     00013971  _uart_flush                           
0     00013992  _dev_uart_init                        
0     00013a5e  _InitSysCtrl                          
0     00013a8f  _InitPeripheralClocks                 
0     00013b13  _DisablePeripheralClocks              
0     00013b2b  _SeizeFlashPump                       
0     00013b3a  _ReleaseFlashPump                     
0     00013b44  _ServiceDog                           
0     00013b52  _DisableDog                           
0     00013b60  _InitSysPll                           
0     00013c26  _InitAuxPll                           
0     00013cee  _CsmUnlock                            
0     00013d0f  _SysIntOsc1Sel                        
0     00013d19  _SysIntOsc2Sel                        
0     00013d23  _SysXtalOscSel                        
0     00013d2f  _AuxIntOsc2Sel                        
0     00013d39  _AuxXtalOscSel                        
0     00013d45  _AuxAuxClkSel                         
0     00013d4f  _IDLE                                 
0     00013d58  _STANDBY                              
0     00013d63  _HALT                                 
0     00013d7c  _HIB                                  
0     00013da2  _dmach_default_cfg                    
0     00013dbe  _dma_get_idle_ch                      
0     00013de0  _dma_get_idle_hch                     
0     00013dee  _dma_free_ch                          
0     00013e03  _dma_dat_cpy_ch                       
0     00013e69  _dma_dev_bind_ch                      
0     00013edd  _dma_ch_isr_handler                   
0     00013f0e  _dma_memcpy                           
0     00013f3a  _dma_memcpy_h                         
0     00013f5d  _dma_dev_cpy                          
0     00013f92  _dma_dev_cpy_h                        
0     00013fbe  _dma_dev_free                         
0     00013fc4  _dev_dma_init                         
0     000140d9  _USBDeviceConfig                      
0     00014276  _USBDeviceConfigAlternate             
0     000142e6  _spitest_chkframe                     
0     000142fc  _spitest_tick                         
0     00014316  _spitest_rcvdata                      
0     0001433a  _spitest_readcmd                      
0     00014407  _spitest_fsm                          
0     000144e8  _spitest_init                         
0     0001451c  _spitest_main                         
0     00014575  _USBStackModeSet                      
0     0001458b  _USB0DualModeIntHandler               
0     000145c5  _USBDualModeInit                      
0     00014608  _USBDualModeTerm                      
0     00014621  _USBOTGModeTerm                       
0     0001463d  _USBOTGModeInit                       
0     000146b1  _USBOTGPollRate                       
0     000146b9  _USB0OTGModeIntHandler                
0     00014738  _OTGDeviceDisconnect                  
0     00014746  _USBOTGMain                           
0     00014794  _InitGpio                             
0     000147d4  _GPIO_SetupPinMux                     
0     00014860  _GPIO_SetupPinOptions                 
0     000148f4  _GPIO_SetupLock                       
0     0001491d  _GPIO_SetupXINT1Gpio                  
0     00014927  _GPIO_SetupXINT2Gpio                  
0     00014931  _GPIO_SetupXINT3Gpio                  
0     0001493b  _GPIO_SetupXINT4Gpio                  
0     00014945  _GPIO_SetupXINT5Gpio                  
0     0001494f  _GPIO_EnableUnbondedIOPullupsFor176Pin
0     00014968  _GPIO_EnableUnbondedIOPullupsFor100Pin
0     0001498d  _GPIO_EnableUnbondedIOPullups         
0     000149a3  _GPIO_ReadPin                         
0     000149ba  _GPIO_WritePin                        
0     000149d8  _SysCtlPeripheralPresent              
0     000149f7  _SysCtlPeripheralReady                
0     00014a31  _SysCtlPeripheralReset                
0     00014a5d  _SysCtlPeripheralEnable               
0     00014a77  _SysCtlPeripheralDisable              
0     00014a92  _SysCtlReset                          
0     00014a9c  _SysCtlClockGet                       
0     00014ae8  _SysCtlLowSpeedClockGet               
0     00014aff  _SysCtlClockSet                       
0     00014b9b  _SysCtlAuxClockSet                    
0     00014c19  _SysCtlUSBPLLEnable                   
0     00014c1a  _SysCtlUSBPLLDisable                  
0     00014c1b  _bsp_uart_clk_init                    
0     00014c7f  _bsp_uart_init                        
0     00014cae  _bsp_uart_set                         
0     00014da5  _bsp_uart_reset                       
0     00014e0e  _IntMasterEnable                      
0     00014e16  _IntMasterDisable                     
0     00014e1e  _IntRegister                          
0     00014e31  _IntUnregister                        
0     00014e46  _IntEnable                            
0     00014ed9  _IntDisable                           
0     00014f59  _IntIFRClear                          
0     00014fd8  _io_get_class                         
0     00015000  _dev_get_type                         
0     0001501c  _write                                
0     00015094  _listen                               
0     000150cf  _read                                 
0     0001514d  _ioflush                              
0     0001516b  _ioctl                                
0     0001518b  _bsp_spi_clk_init                     
0     000151d5  _bsp_spi_set_baud                     
0     0001527a  _bsp_spi_reset                        
0     000152dd  _bsp_spi_init                         
0     0001530e  _pxPortInitialiseStack                
0     0001543a  _xPortStartScheduler                  
0     00015444  _vPortEndScheduler                    
0     00015456  _vPortEnterCritical                   
0     0001545e  _vPortExitCritical                    
0     0001546a  _vPortEnterCriticalFromISR            
0     0001546e  _vPortTaskUsesFPU                     
0     0001547c  _vAssertCalled                        
0     00015481  _vApplicationGetIdleTaskMemory        
0     00015486  _vApplicationGetTimerTaskMemory       
0     0001548b  _vApplicationStackOverflowHook        
0     00015490  _strtold                              
0     00015658  _getopt                               
0     0001577c  _bsp_dma_clk_init                     
0     000157f2  _bsp_DMACH_TrigSrcSel                 
0     0001585f  _bsp_DMACH_ModeConfig                 
0     0001586c  _bsp_DMACH_ISRConfig                  
0     0001587f  _bsp_DMACH_AddrConfig                 
0     0001589b  _bsp_DMACH_BurstConfig                
0     000158ac  _bsp_DMACH_TransferConfig             
0     000158c1  _bsp_DMACH_WrapConfig                 
0     000158df  _bsp_DMACH_Start                      
0     000158e8  _bsp_DMACH_Init                       
0     000158ee  _bsp_clk_cal                          
0     0001598d  _bsp_sys_clk_init                     
0     000159c2  _bsp_aux_clk_init                     
0     000159f6  _bsp_pclk_init                        
0     00015a33  _bsp_clk_init                         
0     00015a4b  _bsp_clk_get_sysclk                   
0     00015a50  _bsp_clk_get_auxclk                   
0     00015a55  _bsp_clk_get_lspclk                   
0     00015a5a  _bsp_clk_get_epwmclk                  
0     00015a5f  _strtoll                              
0     00015c2c  _USBDCDConfigDescGetSize              
0     00015c45  _USBDCDConfigDescGetNum               
0     00015c6a  _USBDCDConfigDescGet                  
0     00015cae  _USBDCDConfigGetNumAlternateInterfaces
0     00015cd3  _USBDCDConfigGetInterface             
0     00015cec  _USBDCDConfigGetInterfaceEndpoint     
0     00015d1d  _dma_ch1_isr_handler                  
0     00015d4f  _dma_ch2_isr_handler                  
0     00015d81  _dma_ch3_isr_handler                  
0     00015db3  _dma_ch4_isr_handler                  
0     00015de5  _dma_ch5_isr_handler                  
0     00015e17  _dma_ch6_isr_handler                  
0     00015e49  _strtoull                             
0     00015f6e  _strtod                               
0     00015f6e  _strtof                               
0     0001608b  LL$$DIV                               
0     000160c7  LL$$MOD                               
0     00016101  ULL$$DIV                              
0     00016130  ULL$$MOD                              
0     00016192  _uartb_rx_isr_handler                 
0     000161c9  _uartb_tx_isr_handler                 
0     00016209  _uartc_rx_isr_handler                 
0     00016240  _uartc_tx_isr_handler                 
0     00016283  _bsp_timer_clk_init                   
0     000162c6  _bsp_timer_preinit                    
0     000162d3  _bsp_timer_reset                      
0     000162ed  _bsp_timer_tim_set                    
0     00016327  _bsp_timer_ctr_set                    
0     00016354  _bsp_timer_init                       
0     00016368  _strtol                               
0     000164bf  _USBLibDMAInit                        
0     0001651a  _USBDescGetNum                        
0     00016540  _USBDescGet                           
0     0001656b  _USBDescGetNumAlternateInterfaces     
0     000165b9  _USBDescGetInterface                  
0     000165d3  _USBDescGetInterfaceEndpoint          
0     000165e5  _flush                                
0     000165eb  _scan                                 
0     00016639  _vfprint                              
0     0001666d  _fprint                               
0     0001667f  _print                                
0     0001668d  _getbyte                              
0     000166a2  _ldexpl                               
0     000166a2  _scalbnl                              
0     0001675e  _getoptstrwrite                       
0     000167fa  _getoptdebug                          
0     0001680b  _getoptstream                         
0     00016817  _strtoul                              
0     000168ca  FD$$ADD                               
0     00016966  _vListInitialise                      
0     0001697d  _vListInitialiseItem                  
0     00016986  _vListInsertEnd                       
0     000169a1  _vListInsert                          
0     000169d5  _uxListRemove                         
0     000169f9  _f28x_USB0DeviceIntHandler            
0     00016a2a  _f28x_USB0HostIntHandler              
0     00016a5b  _f28x_USB0DualModeIntHandler          
0     00016a8c  _timer0_isr_handler                   
0     00016abe  _timer1_isr_handler                   
0     00016aec  _timer2_isr_handler                   
0     00016b1a  FD$$DIV                               
0     00016ba5  FS$$DIV                               
0     00016c2d  FD$$MPY                               
0     00016cb0  _InternalUSBTickInit                  
0     00016cd5  _InternalUSBTickReset                 
0     00016cd9  _InternalUSBRegisterTickHandler       
0     00016d07  _InternalUSBStartOfFrameTick          
0     00016d32  _spic_rx_isr_handler                  
0     00016d69  _spic_tx_isr_handler                  
0     00016da9  _bsp_gpio_init                        
0     00016e06  _bsp_gpio_set                         
0     00016e0d  _bsp_gpio_read                        
0     00016e13  _bsp_gpio_toggle                      
0     00016e1f  _vsscanf                              
0     00016e2f  _sscanf                               
0     00016e8c  _frexpl                               
0     00016ee6  _vsnprintf                            
0     00016f3d  _c_int00                              
0     00016f93  _init_crc8                            
0     00016fc2  _crc8                                 
0     00016fe3  _atoi                                 
0     00017014  _sys_tick_init                        
0     0001702c  _sys_tick                             
0     00017045  _ltoa                                 
0     00017073  FD$$CMP                               
0     0001709d  L$$DIV                                
0     000170ac  L$$MOD                                
0     000170ba  UL$$DIV                               
0     000170c1  UL$$MOD                               
0     000170c7  C$$EXIT                               
0     000170c7  _abort                                
0     000170c9  _exit                                 
0     000170f0  _InitPieCtrl                          
0     0001710f  _EnableInterrupts                     
0     00017118  _InitPieVectTable                     
0     0001713e  FS$$TOULL                             
0     00017163  _copy_in                              
0     00017187  _copysignl                            
0     000171ab  I$$DIV                                
0     000171bc  I$$MOD                                
0     000171cd  FD$$TOI                               
0     000171ee  FD$$TOL                               
0     0001720d  LL$$CMP                               
0     0001721f  ULL$$CMP                              
0     0001722b  _memcpy                               
0     00017249  I$$TOFD                               
0     00017266  FS$$TOFD                              
0     00017282  L$$TOFD                               
0     0001729e  _memmove                              
0     000172b9  __args_main                           
0     000172d2  LL$$AND                               
0     000172da  LL$$OR                                
0     000172e2  LL$$XOR                               
0     000172ea  _strncmp                              
0     00017302  _bsp_reset                            
0     00017312  _bsp_init                             
0     00017319  UL$$TOFD                              
0     0001732f  LL$$MPY                               
0     00017343  _USB0DeviceIntHandler                 
0     00017355  ULL$$TOFS                             
0     00017366  _sys_reset                            
0     00017368  _sys_init                             
0     00017373  _sys_schd                             
0     00017376  _main                                 
0     00017385  _IntDefaultHandler                    
0     00017394  FD$$SUB                               
0     000173a2  _memccpy                              
0     000173af  _memset                               
0     000173bb  _strchr                               
0     000173c7  _strrchr                              
0     000173d2  _strcmp                               
0     000173dc  __register_unlock                     
0     000173e0  __register_lock                       
0     000173e4  __nop                                 
0     000173e5  FD$$NEG                               
0     000173ee  _strlen                               
0     000173f6  _root_init                            
0     000173fa  _root_main                            
0     000173fd  _dev_init                             
0     00017402  _strcpy                               
0     00017407  _sys_fault                            
0     0001740b  _SetDBGIER                            
0     00017411  __system_pre_init                     
0     00017413  ___etext__                            
0     00017413  etext                                 
0     0003f800  _g_asIPCCPU2toCPU1Buffers             
0     0003f880  _g_usGetWriteIndexes                  
0     0003f884  _g_usPutReadIndexes                   
1     00000b00  _AdcaResultRegs                       
1     00000b20  _AdcbResultRegs                       
1     00000b40  _AdccResultRegs                       
1     00000b60  _AdcdResultRegs                       
1     00000c00  _CpuTimer0Regs                        
1     00000c08  _CpuTimer1Regs                        
1     00000c10  _CpuTimer2Regs                        
1     00000ce0  _PieCtrlRegs                          
1     00000d00  _EmuKey                               
1     00000d00  _PieVectTable                         
1     00000d01  _EmuBMode                             
1     00001000  _DmaRegs                              
1     00001400  _Cla1Regs                             
1     00004000  _EPwm1Regs                            
1     00004100  _EPwm2Regs                            
1     00004200  _EPwm3Regs                            
1     00004300  _EPwm4Regs                            
1     00004400  _EPwm5Regs                            
1     00004500  _EPwm6Regs                            
1     00004600  _EPwm7Regs                            
1     00004700  _EPwm8Regs                            
1     00004800  _EPwm9Regs                            
1     00004900  _EPwm10Regs                           
1     00004a00  _EPwm11Regs                           
1     00004b00  _EPwm12Regs                           
1     00005000  _ECap1Regs                            
1     00005020  _ECap2Regs                            
1     00005040  _ECap3Regs                            
1     00005060  _ECap4Regs                            
1     00005080  _ECap5Regs                            
1     000050a0  _ECap6Regs                            
1     00005100  _EQep1Regs                            
1     00005140  _EQep2Regs                            
1     00005180  _EQep3Regs                            
1     00005c00  _DacaRegs                             
1     00005c10  _DacbRegs                             
1     00005c20  _DaccRegs                             
1     00005c80  _Cmpss1Regs                           
1     00005ca0  _Cmpss2Regs                           
1     00005cc0  _Cmpss3Regs                           
1     00005ce0  _Cmpss4Regs                           
1     00005d00  _Cmpss5Regs                           
1     00005d20  _Cmpss6Regs                           
1     00005d40  _Cmpss7Regs                           
1     00005d60  _Cmpss8Regs                           
1     00005e00  _Sdfm1Regs                            
1     00005e80  _Sdfm2Regs                            
1     00006000  _McbspaRegs                           
1     00006040  _McbspbRegs                           
1     00006100  _SpiaRegs                             
1     00006110  _SpibRegs                             
1     00006120  _SpicRegs                             
1     00006200  _UppRegs                              
1     00007000  _WdRegs                               
1     00007060  _NmiIntruptRegs                       
1     00007070  _XintRegs                             
1     00007200  _SciaRegs                             
1     00007210  _ScibRegs                             
1     00007220  _ScicRegs                             
1     00007230  _ScidRegs                             
1     00007300  _I2caRegs                             
1     00007340  _I2cbRegs                             
1     00007400  _AdcaRegs                             
1     00007480  _AdcbRegs                             
1     00007500  _AdccRegs                             
1     00007580  _AdcdRegs                             
1     00007900  _InputXbarRegs                        
1     00007920  _XbarRegs                             
1     00007940  _SyncSocRegs                          
1     00007980  _DmaClaSrcSelRegs                     
1     00007a00  _EPwmXbarRegs                         
1     00007a80  _OutputXbarRegs                       
1     00007c00  _GpioCtrlRegs                         
1     00007f00  _GpioDataRegs                         
1     00008000  _uart_phy_ptr                         
1     00008000  _uarta_in                             
1     00008000  _uarta_out                            
1     00008000  _uartd_in                             
1     00008000  _uartd_out                            
1     00008008  _dev_uart_array                       
1     00008040  _uartb                                
1     000080c0  _uartc                                
1     00008140  _uarta                                
1     000081c0  _uartd                                
1     00008240  _uartc_in                             
1     00008340  _uartb_in                             
1     00008440  _uartb_out                            
1     00008600  _uartc_out                            
1     00008790  _g_pui8IADAudioDescriptor             
1     00008798  _g_psAudioSections                    
1     000087bb  _deviceOpen                           
1     000087bc  __lock                                
1     000087be  __unlock                              
1     000087fe  _errno                                
1     00008800  _dev_spi_array                        
1     00008800  _spia_in                              
1     00008800  _spia_out                             
1     00008800  _spib_in                              
1     00008800  _spib_out                             
1     00008806  _spi_phy_ptr                          
1     0000880c  _spi_operation                        
1     00008816  _spibin                               
1     00008840  _spiaout                              
1     00008860  _spibout                              
1     00008880  _spiain                               
1     000088a0  _spicout                              
1     000088c0  _spicin                               
1     00008900  _spic_in                              
1     00008980  _spic_out                             
1     00008a00  _dev_ctrl_spib                        
1     00008a80  _dev_ctrl_spic                        
1     00008b00  _dev_ctrl_spia                        
1     00008b80  _spib                                 
1     00008c00  _spic                                 
1     00008c80  _spia                                 
1     00008ce8  _CpuTimer1                            
1     00008cf0  _CpuTimer2                            
1     00008cf8  _CpuTimer0                            
1     00008d00  _bsp_gpio_info                        
1     00008fba  _tempSensor_tempOffset                
1     00008fbc  _tempSensor_scaleFactor               
1     00008fbe  _tempSensor_tempSlope                 
1     00008ff3  _optopt                               
1     00008ff5  _opterr                               
1     00008ffa  _optind                               
1     00008ffc  _optarg                               
1     00009000  _stdio_dev                            
1     00009040  _std_out                              
1     00009200  _std_in                               
1     000093ba  _ulTaskHasFPUContext                  
1     000093bc  _ulSecureNesting                      
1     000093be  _ulCriticalNesting                    
1     0000974e  _g_psCDCSerSections                   
1     00009754  _g_psCDCCompSerSections               
1     0000975c  _g_pui8IADSerDescriptor               
1     00009764  _g_pui8CDCSerDescriptor               
1     0000976d  _g_pui8CDCSerDeviceDescriptor         
1     00009780  _g_ppsDevInfo                         
1     00009784  _g_psDCDInst                          
1     00009800  _comtest_err_test                     
1     00009840  _comtest_bash                         
1     00009880  _comtest_ctrl                         
1     00009a9a  _g_sDFUConfigHeader                   
1     00009a9e  _g_psDFUSections                      
1     00009aa4  _g_pui8DFUInterface                   
1     00009aad  _g_pui8DFUFunctionalDesc              
1     00009ab6  _g_pui8DFUConfigDescriptor            
1     00009ac0  _spitest_err_test                     
1     00009b00  _sh                                   
1     00009b40  _spitest_ctrl                         
1     00009d56  _xQueueRegistry                       
1     00009d80  _manual_reinit                        
1     00009d81  _argc                                 
1     00009d82  _argv_buf                             
1     00009dc0  _getoptbuf                            
1     00009f64  _g_ppCompConfigDescriptors            
1     00009f78  _bsp_clk_info                         
1     00009f90  _pxCurrentTCB                         
1     00009ffc  _g_sAudioConfigSection                
1     0000a000  _dev_dma                              
1     0000a006  _dma_phy_ptr                          
1     0000a012  _dev_dma_array                        
1     0000a040  _dma_ch5                              
1     0000a080  _dma_ch6                              
1     0000a0c0  _dma_ch2                              
1     0000a100  _dma_ch1                              
1     0000a140  _dma_ch4                              
1     0000a180  _dma_ch3                              
1     0000a1c0  _timer0_ptr                           
1     0000a1c2  _timer1_ptr                           
1     0000a1c4  _timer2_ptr                           
1     0000a1c6  _timer_phy_ptr                        
1     0000a1cc  _dev_timer_array                      
1     0000a200  _timer2                               
1     0000a280  _timer0                               
1     0000a300  _timer1                               
1     0000a35e  _g_sHIDConfigHeader                   
1     0000a362  _g_sHIDDescriptorSection              
1     0000a366  _g_psHIDSections                      
1     0000a36e  _g_pui8HIDInterface                   
1     0000a377  _g_pui8MouseDescriptor                
1     0000a380  _made_crc8_table                      
1     0000a3c0  _crc8_table                           
1     0000a5fc  _g_sAudioControlInterfaceSection      
1     0000a600  _SCI                                  
1     0000a604  _MCBSP                                
1     0000a608  _I2C                                  
1     0000a60c  _SDFM                                 
1     0000a612  _EQEP                                 
1     0000a61a  _SPI                                  
1     0000a622  _ADC                                  
1     0000a62c  _ECAP                                 
1     0000a640  _EPWM                                 
1     0000a65a  _TRIP_SEL                             
1     0000a678  ___TI_enable_exit_profile_output      
1     0000a67a  ___TI_cleanup_ptr                     
1     0000a67c  ___TI_dtors_ptr                       
1     0000a680  _g_psBulkSections                     
1     0000a684  _g_pui8BulkDescriptor                 
1     0000a68d  _g_pui8BulkDeviceDescriptor           
1     0000a6a0  _g_bUSBTimerInitialized               
1     0000a6a2  _g_ui32CurrentUSBTick                 
1     0000a6a4  _g_ui32USBSOFCount                    
1     0000a6a6  _g_pfnTickHandlers                    
1     0000a6b2  _g_pvTickInstance                     
1     0000a6c0  _g_pui8HIDDeviceDescriptor            
1     0000a6e1  _g_iUSBMode                           
1     0000a6e2  _g_eOTGModeState                      
1     0000a6e6  _g_ui32PollRate                       
1     0000a6e8  _g_ui32WaitTicks                      
1     0000ad70  _PieVectTableInit                     
1     0000afc3  _g_pui8AudioControlInterface          
1     0000b800  __stack                               
1     0000c000  __STACK_END                           
1     00018106  __ctypes_                             
1     00018512  _g_pui8AudioStreamInterface           
1     0001860e  _g_pui8CDCSerCommInterface            
1     00018684  _g_pui8BulkInterface                  
1     0001869b  _g_pui8CDCSerDataInterface            
1     0001870e  _g_pui8HIDInEndpoint                  
1     00018728  _g_sAudioStreamInterfaceSection       
1     0001872c  _g_sBulkConfigSection                 
1     00018730  _g_sBulkInterfaceSection              
1     00018734  _g_sCDCSerCommInterfaceSection        
1     00018738  _g_sCDCSerConfigSection               
1     0001873c  _g_sCDCSerDataInterfaceSection        
1     00018740  _g_sDFUConfigSection                  
1     00018744  _g_sDFUFunctionalDescSection          
1     00018748  _g_sDFUInterfaceSection               
1     00018750  _g_sHIDConfigSection                  
1     00018758  _g_sHIDInEndpointSection              
1     00018760  _g_sHIDInterfaceSection               
1     00018768  _g_sIADAudioConfigSection             
1     0001876c  _g_sIADSerConfigSection               
1     0003fc00  _g_asIPCCPU1toCPU2Buffers             
1     0003fc80  _g_usPutWriteIndexes                  
1     0003fc84  _g_usGetReadIndexes                   
1     00047000  _Emif1Regs                            
1     00047800  _Emif2Regs                            
1     00048000  _CanaRegs                             
1     0004a000  _CanbRegs                             
1     00050000  _IpcRegs                              
1     00050024  _FlashPumpSemaphoreRegs               
1     0005d000  _DevCfgRegs                           
1     0005d180  _AnalogSubsysRegs                     
1     0005d200  _ClkCfgRegs                           
1     0005d300  _CpuSysRegs                           
1     0005e608  _RomPrefetchRegs                      
1     0005f000  _DcsmZ1Regs                           
1     0005f040  _DcsmZ2Regs                           
1     0005f070  _DcsmCommonRegs                       
1     0005f400  _MemCfgRegs                           
1     0005f480  _Emif1ConfigRegs                      
1     0005f4a0  _Emif2ConfigRegs                      
1     0005f4c0  _AccessProtectionRegs                 
1     0005f500  _MemoryErrorRegs                      
1     0005f540  _RomWaitStateRegs                     
1     0005f800  _Flash0CtrlRegs                       
1     0005fb00  _Flash0EccRegs                        
1     00078000  _DcsmZ1Otp                            
1     00078200  _DcsmZ2Otp                            
abs   00000800  __STACK_SIZE                          
abs   ffffffff  ___TI_pprof_out_hndl                  
abs   ffffffff  ___TI_prof_data_size                  
abs   ffffffff  ___TI_prof_data_start                 
abs   ffffffff  ___binit__                            
abs   ffffffff  ___c_args__                           
abs   ffffffff  ___cinit__                            
abs   ffffffff  ___pinit__                            
abs   ffffffff  binit                                 
abs   ffffffff  cinit                                 
abs   ffffffff  pinit                                 

[948 symbols]
